Certificate:
    Data:
        Version: 3 (0x2)
        Serial Number: 8 (0x8)
    Signature Algorithm: sha256WithRSAEncryption
        Issuer: C=DE, O=haw-hamburg, OU=informatik, CN=CA-diana-yavuz
        Validity
            Not Before: Nov 13 17:44:28 2016 GMT
            Not After : Dec 11 17:44:28 2016 GMT
        Subject: C=DE, O=haw-hamburg, OU=informatik, CN=diana-yavuz.informatik.haw-hamburg.de
        Subject Public Key Info:
            Public Key Algorithm: rsaEncryption
                Public-Key: (2048 bit)
                Modulus:
                    00:d1:96:bd:0c:f7:09:fc:d6:2b:49:48:49:5b:54:
                    f6:6f:31:55:d3:65:f4:5c:66:28:7b:61:08:89:ca:
                    4c:ee:bb:bf:bb:9a:be:8e:89:e2:93:1b:b1:18:d6:
                    a8:90:fd:70:47:e3:4c:9e:6e:29:1a:70:57:1d:82:
                    75:a2:fc:f0:c6:00:4b:76:e8:ed:11:a5:16:9d:8f:
                    8d:02:9a:8b:b6:30:e4:fb:e8:27:97:98:0b:82:8f:
                    96:3c:1d:8c:9a:fe:04:c0:0b:cc:7c:bb:6a:f6:9d:
                    1e:61:8a:4c:cb:15:51:34:b6:c7:98:0f:59:f0:02:
                    0c:d3:3c:67:d2:d2:24:bf:2a:da:8a:79:01:26:02:
                    b6:dc:6b:05:26:6c:b2:33:62:01:05:86:e7:c5:4c:
                    c1:25:da:f5:6a:6a:57:5a:5f:44:bc:02:37:a2:c6:
                    8c:c9:4b:77:0e:31:9e:53:6c:69:df:1d:4f:1e:f7:
                    03:1e:b7:fd:82:c2:6f:f8:e0:6e:0b:a4:7d:52:a9:
                    4b:9c:a9:bd:01:f2:70:02:75:52:68:fe:41:38:55:
                    a5:72:c7:ba:88:60:50:10:b4:79:33:01:55:a1:93:
                    2e:a5:9a:27:19:27:da:6e:31:08:2f:0d:01:c3:19:
                    9a:0e:e4:7e:de:0d:5d:51:16:48:0c:f8:17:6c:a1:
                    a6:e3
                Exponent: 65537 (0x10001)
        X509v3 extensions:
            X509v3 Basic Constraints: 
                CA:FALSE
            Netscape Cert Type: 
                SSL Server
            Netscape Comment: 
                OpenSSL Generated Server Certificate
            X509v3 Subject Key Identifier: 
                FD:29:E2:B1:33:AF:42:85:65:F9:E6:99:CC:36:A7:5F:4F:FE:95:25
            X509v3 Authority Key Identifier: 
                keyid:F0:60:A8:4A:14:B2:34:73:E1:B8:43:9A:B4:E0:BD:3B:B6:F5:12:30

            X509v3 Key Usage: 
                Digital Signature, Non Repudiation
    Signature Algorithm: sha256WithRSAEncryption
         7c:50:e4:76:fb:5e:5b:99:f6:c8:d6:de:2c:6e:37:8d:78:d5:
         56:7a:e0:33:54:a7:5a:2e:e6:d3:6e:47:ef:0a:68:56:39:f8:
         2d:eb:8b:ff:04:69:6e:83:c7:9e:32:e3:4d:13:be:b5:c4:dd:
         e4:94:a1:77:ad:bc:60:a6:a0:e8:c9:76:56:10:aa:11:95:bd:
         02:82:58:68:22:20:41:0d:9f:6e:da:83:4b:35:fa:e7:a9:d4:
         44:47:54:70:17:4a:01:14:d5:16:ec:12:34:0d:91:6b:66:bc:
         0c:5f:e0:e3:07:a5:71:8e:2d:05:e5:a5:f5:73:37:0f:7d:e6:
         a4:38:44:72:24:09:61:f2:56:2a:87:6e:70:ef:47:40:52:16:
         10:d5:a1:3c:f5:0d:3d:56:88:07:fb:e6:ca:50:cd:37:e5:f4:
         ec:9b:1e:84:30:79:f2:9f:72:80:7c:0d:74:04:dd:74:cd:d4:
         e2:48:9d:d5:21:2c:1a:20:20:6d:bd:a8:af:9f:df:18:de:f6:
         00:0e:e3:a7:84:a7:54:ab:f4:39:20:61:11:65:6a:0e:7e:33:
         51:ea:47:0e:9a:4d:5a:02:2c:cd:ac:51:51:08:96:ec:9f:7f:
         f1:9f:82:27:8e:14:db:10:49:b8:22:35:ad:63:d7:7b:db:71:
         13:8f:82:17
-----BEGIN CERTIFICATE-----
MIID2DCCAsCgAwIBAgIBCDANBgkqhkiG9w0BAQsFADBRMQswCQYDVQQGEwJERTEU
MBIGA1UECgwLaGF3LWhhbWJ1cmcxEzARBgNVBAsMCmluZm9ybWF0aWsxFzAVBgNV
BAMMDkNBLWRpYW5hLXlhdnV6MB4XDTE2MTExMzE3NDQyOFoXDTE2MTIxMTE3NDQy
OFowaDELMAkGA1UEBhMCREUxFDASBgNVBAoMC2hhdy1oYW1idXJnMRMwEQYDVQQL
DAppbmZvcm1hdGlrMS4wLAYDVQQDDCVkaWFuYS15YXZ1ei5pbmZvcm1hdGlrLmhh
dy1oYW1idXJnLmRlMIIBIjANBgkqhkiG9w0BAQEFAAOCAQ8AMIIBCgKCAQEA0Za9
DPcJ/NYrSUhJW1T2bzFV02X0XGYoe2EIicpM7ru/u5q+jonikxuxGNaokP1wR+NM
nm4pGnBXHYJ1ovzwxgBLdujtEaUWnY+NApqLtjDk++gnl5gLgo+WPB2Mmv4EwAvM
fLtq9p0eYYpMyxVRNLbHmA9Z8AIM0zxn0tIkvyrainkBJgK23GsFJmyyM2IBBYbn
xUzBJdr1ampXWl9EvAI3osaMyUt3DjGeU2xp3x1PHvcDHrf9gsJv+OBuC6R9UqlL
nKm9AfJwAnVSaP5BOFWlcse6iGBQELR5MwFVoZMupZonGSfabjEILw0BwxmaDuR+
3g1dURZIDPgXbKGm4wIDAQABo4GjMIGgMAkGA1UdEwQCMAAwEQYJYIZIAYb4QgEB
BAQDAgZAMDMGCWCGSAGG+EIBDQQmFiRPcGVuU1NMIEdlbmVyYXRlZCBTZXJ2ZXIg
Q2VydGlmaWNhdGUwHQYDVR0OBBYEFP0p4rEzr0KFZfnmmcw2p19P/pUlMB8GA1Ud
IwQYMBaAFPBgqEoUsjRz4bhDmrTgvTu29RIwMAsGA1UdDwQEAwIGwDANBgkqhkiG
9w0BAQsFAAOCAQEAfFDkdvteW5n2yNbeLG43jXjVVnrgM1SnWi7m025H7wpoVjn4
LeuL/wRpboPHnjLjTRO+tcTd5JShd628YKag6Ml2VhCqEZW9AoJYaCIgQQ2fbtqD
SzX656nUREdUcBdKARTVFuwSNA2Ra2a8DF/g4welcY4tBeWl9XM3D33mpDhEciQJ
YfJWKoducO9HQFIWENWhPPUNPVaIB/vmylDNN+X07JsehDB58p9ygHwNdATddM3U
4kid1SEsGiAgbb2or5/fGN72AA7jp4SnVKv0OSBhEWVqDn4zUepHDppNWgIszaxR
UQiW7J9/8Z+CJ44U2xBJuCI1rWPXe9txE4+CFw==
-----END CERTIFICATE-----
-----BEGIN X509 CRL-----
MIIB+DCB4QIBATANBgkqhkiG9w0BAQsFADBRMQswCQYDVQQGEwJERTEUMBIGA1UE
CgwLaGF3LWhhbWJ1cmcxEzARBgNVBAsMCmluZm9ybWF0aWsxFzAVBgNVBAMMDkNB
LWRpYW5hLXlhdnV6Fw0xNjExMTMxNzQ0MjlaFw0xNjEyMTExNzQ0MjlaoFwwWjBY
BgNVHSMEUTBPgBTwYKhKFLI0c+G4Q5q04L07tvUSMKE0pDIwMDELMAkGA1UEBhMC
REUxFDASBgNVBAoMC2hhdy1oYW1idXJnMQswCQYDVQQDDAJDQYIBCjANBgkqhkiG
9w0BAQsFAAOCAQEAHFIdzOy7EEqsqSX/ETPXiJiC0+jBV+tbwpubsIWqFzjWTl3W
Hma+0VVOg1VTc9wtKhk/fo0zo3mpwmAr9uq0NKQuVGmNi621Oq15WpHmFOJazhoA
S1biKymKjFfDydCiCZMAmONoTFtZw6ALEuYgxqoZD6DNXv9x7sU3tJCkY6RKsRbG
0eaD0NQOgBPJQ1mVew/vNrs9qprIQjsZhN8FuoJQKNbtVdYckQt42gLk6x/q5QjL
YpUK6GDLIC9o+uFfqP5z6nBX33PGlfays1DvYZT9GCM+32QR0E+U2qmukhmAxm9b
aO8f2u2JU74mt1q4Z8Hl5nYsiQgoL8S1qtaqXg==
-----END X509 CRL-----
Certificate:
    Data:
        Version: 3 (0x2)
        Serial Number: 10 (0xa)
    Signature Algorithm: sha256WithRSAEncryption
        Issuer: C=DE, O=haw-hamburg, CN=CA
        Validity
            Not Before: Nov 13 17:44:26 2016 GMT
            Not After : Dec 11 17:44:26 2016 GMT
        Subject: C=DE, O=haw-hamburg, OU=informatik, CN=CA-diana-yavuz
        Subject Public Key Info:
            Public Key Algorithm: rsaEncryption
                Public-Key: (2048 bit)
                Modulus:
                    00:ad:a6:dd:98:1a:77:90:ec:b7:5c:c9:2e:19:9e:
                    90:27:ad:78:ca:fb:3b:e3:a9:d7:7c:39:6a:c8:2e:
                    fe:24:f8:1a:46:93:e9:89:b8:11:4d:0f:34:44:c6:
                    84:22:04:57:7d:59:fc:1d:02:fa:4c:b0:88:05:8b:
                    fe:18:bb:13:fc:ef:9f:84:72:12:ac:9c:8a:a6:6a:
                    d8:05:99:52:a4:9a:44:32:f9:2c:b1:f4:21:ba:10:
                    28:8f:d2:39:79:43:df:5e:02:59:e8:d9:51:fd:71:
                    de:3b:54:95:b5:61:8d:be:ec:2a:fb:c5:e7:3c:53:
                    e2:8f:bb:51:79:13:7e:17:6d:ac:12:8c:40:fc:af:
                    b4:62:a8:da:de:04:a9:c8:49:50:24:a6:9c:67:9a:
                    f4:2a:c7:7c:78:d0:51:5a:22:87:e1:6b:7b:af:fc:
                    cb:5b:ed:bb:39:37:20:4a:c4:54:66:f8:73:fc:19:
                    c2:53:4a:8c:6a:42:fc:66:07:df:ba:92:66:4a:62:
                    61:fc:22:26:37:cf:86:46:19:10:1b:63:4e:07:86:
                    c1:29:52:26:fc:24:93:03:68:e1:dc:57:9c:1c:d3:
                    c4:7d:01:6f:4c:24:32:0c:08:d8:6f:b7:70:ec:37:
                    80:de:12:52:ff:f4:2a:28:4c:c9:fa:ab:6f:fd:37:
                    af:21
                Exponent: 65537 (0x10001)
        X509v3 extensions:
            X509v3 Subject Key Identifier: 
                F0:60:A8:4A:14:B2:34:73:E1:B8:43:9A:B4:E0:BD:3B:B6:F5:12:30
            X509v3 Authority Key Identifier: 
                keyid:09:B0:14:B4:3F:26:C9:DA:40:37:C1:93:18:29:CC:B3:3A:75:82:FC

            X509v3 Basic Constraints: critical
                CA:TRUE, pathlen:0
            X509v3 Key Usage: critical
                Digital Signature, Certificate Sign, CRL Sign
    Signature Algorithm: sha256WithRSAEncryption
         81:8d:dc:dc:73:6f:9a:36:28:a2:3d:a0:98:c4:1f:51:ab:dc:
         24:52:09:f4:ab:8e:2a:f6:0d:77:d9:66:04:8a:85:fe:2e:b0:
         e8:f5:34:b2:63:df:f6:4d:07:50:d0:f4:a5:fb:00:03:a8:3b:
         51:88:39:35:c7:7c:8e:7c:ea:17:b6:bd:20:1b:c5:5a:c3:ea:
         de:20:f1:51:0b:e2:91:b4:42:3c:35:d4:2f:56:1b:6b:dd:12:
         f6:53:c8:1d:77:5a:2f:3b:20:a3:38:05:6a:cd:04:59:74:51:
         06:41:36:c0:ef:fe:35:3e:e5:b9:cb:b5:a0:88:d2:a9:83:2d:
         66:e8:89:b7:1c:ce:b0:a7:a2:e3:e7:4a:d9:b8:51:25:ab:82:
         81:b0:e0:af:45:da:70:41:d1:2e:24:fe:8c:36:3b:38:b6:2e:
         80:39:2e:1a:11:9a:fd:2c:41:72:57:5d:9b:b9:28:e2:d8:c8:
         0c:50:46:e9:8c:4c:05:34:19:93:c6:90:b1:2c:a9:f7:07:fd:
         0e:15:0b:e7:e3:f7:d4:4c:4c:ad:ee:46:47:ae:58:58:ae:bf:
         26:91:9a:cb:d5:89:bc:d7:b7:3c:95:88:1a:1d:d7:a3:06:1c:
         e8:e6:d7:b5:6b:c7:bf:3a:c6:4b:84:a7:8c:9b:a7:7b:72:6d:
         8b:82:86:f0
-----BEGIN CERTIFICATE-----
MIIDYjCCAkqgAwIBAgIBCjANBgkqhkiG9w0BAQsFADAwMQswCQYDVQQGEwJERTEU
MBIGA1UECgwLaGF3LWhhbWJ1cmcxCzAJBgNVBAMMAkNBMB4XDTE2MTExMzE3NDQy
NloXDTE2MTIxMTE3NDQyNlowUTELMAkGA1UEBhMCREUxFDASBgNVBAoMC2hhdy1o
YW1idXJnMRMwEQYDVQQLDAppbmZvcm1hdGlrMRcwFQYDVQQDDA5DQS1kaWFuYS15
YXZ1ejCCASIwDQYJKoZIhvcNAQEBBQADggEPADCCAQoCggEBAK2m3Zgad5Dst1zJ
LhmekCeteMr7O+Op13w5asgu/iT4GkaT6Ym4EU0PNETGhCIEV31Z/B0C+kywiAWL
/hi7E/zvn4RyEqyciqZq2AWZUqSaRDL5LLH0IboQKI/SOXlD314CWejZUf1x3jtU
lbVhjb7sKvvF5zxT4o+7UXkTfhdtrBKMQPyvtGKo2t4EqchJUCSmnGea9CrHfHjQ
UVoih+Fre6/8y1vtuzk3IErEVGb4c/wZwlNKjGpC/GYH37qSZkpiYfwiJjfPhkYZ
EBtjTgeGwSlSJvwkkwNo4dxXnBzTxH0Bb0wkMgwI2G+3cOw3gN4SUv/0KihMyfqr
b/03ryECAwEAAaNmMGQwHQYDVR0OBBYEFPBgqEoUsjRz4bhDmrTgvTu29RIwMB8G
A1UdIwQYMBaAFAmwFLQ/JsnaQDfBkxgpzLM6dYL8MBIGA1UdEwEB/wQIMAYBAf8C
AQAwDgYDVR0PAQH/BAQDAgGGMA0GCSqGSIb3DQEBCwUAA4IBAQCBjdzcc2+aNiii
PaCYxB9Rq9wkUgn0q44q9g132WYEioX+LrDo9TSyY9/2TQdQ0PSl+wADqDtRiDk1
x3yOfOoXtr0gG8Vaw+reIPFRC+KRtEI8NdQvVhtr3RL2U8gdd1ovOyCjOAVqzQRZ
dFEGQTbA7/41PuW5y7WgiNKpgy1m6Im3HM6wp6Lj50rZuFElq4KBsOCvRdpwQdEu
JP6MNjs4ti6AOS4aEZr9LEFyV12buSji2MgMUEbpjEwFNBmTxpCxLKn3B/0OFQvn
4/fUTEyt7kZHrlhYrr8mkZrL1Ym817c8lYgaHdejBhzo5te1a8e/OsZLhKeMm6d7
cm2Lgobw
-----END CERTIFICATE-----
-----BEGIN X509 CRL-----
MIIB3zCByAIBATANBgkqhkiG9w0BAQsFADAwMQswCQYDVQQGEwJERTEUMBIGA1UE
CgwLaGF3LWhhbWJ1cmcxCzAJBgNVBAMMAkNBFw0xNjExMTMxNzQ0MjhaFw0xNjEy
MTExNzQ0MjhaoGQwYjBgBgNVHSMEWTBXgBQJsBS0PybJ2kA3wZMYKcyzOnWC/KE0
pDIwMDELMAkGA1UEBhMCREUxFDASBgNVBAoMC2hhdy1oYW1idXJnMQswCQYDVQQD
DAJDQYIJAPPyQyvo89DjMA0GCSqGSIb3DQEBCwUAA4IBAQC6ZFQ/QZ2/9wN471ar
2CG7W9ZSifB/MYql7kl7HqKdbgnLmDuFIPsEobbVI1rIKpMhyIMqkD1ZpLLIfOMf
tQJCKIfU6DLjSqTwS5IvplDiqEwxuUk81d4gqYbIUL1BCrRu3NVyyERHQGC7jHtF
5CHIjgRDjVDsxcXzBN5XXdBYPPtl6ItD3czYC7SllvDDqIaR4X+F+2AQlrhqaWyO
9fS56I9MZ8+TTqO5fSEQu/qeOA2CEQcYXypw0XAy+0fNrm8c/A4Apg/MbgU7LuMf
rM5b4C93QGOlyVv+88jFFWFTRQoM/kveCbO5kz3tEG6Z/QFpWesDpiZxVxY4swtY
MS5z
-----END X509 CRL-----
-----BEGIN CERTIFICATE-----
MIIDRjCCAi6gAwIBAgIJAPPyQyvo89DjMA0GCSqGSIb3DQEBCwUAMDAxCzAJBgNV
BAYTAkRFMRQwEgYDVQQKDAtoYXctaGFtYnVyZzELMAkGA1UEAwwCQ0EwHhcNMTYx
MTEzMTc0NDI2WhcNMzYxMTA4MTc0NDI2WjAwMQswCQYDVQQGEwJERTEUMBIGA1UE
CgwLaGF3LWhhbWJ1cmcxCzAJBgNVBAMMAkNBMIIBIjANBgkqhkiG9w0BAQEFAAOC
AQ8AMIIBCgKCAQEA21z0dUyqHRCOsaByJSYJuNTH53x9bXlXm/kVda+6qCyaHB3f
nNyvnEDo8/vkK3xHlApyAIOPPaFGMGZB2ZtMpSr/GrTNuJv/Who6LZoQWRNvkq0u
JylMTPSVt1ERZuKYys2d+DKHm9GcLRhxyR4okfljn6zrlgCZOYCqkc6DUa9Czpnn
ctGEQLl0NuIR8BNSR7yRKKp8nq6A/Zpe1ZM+cu+eZmGEZs0LslqJSpe6YT0d+PkS
p+IzpXPuMcmNjqdi2ogaXExthho2sKpxOZUJX5JAb9Y/6k4WVPJVqCJunhvjene1
Ix2fb2GezsZM+Uiu0K6SvYTAVbl9DIDIOdwisQIDAQABo2MwYTAdBgNVHQ4EFgQU
CbAUtD8mydpAN8GTGCnMszp1gvwwHwYDVR0jBBgwFoAUCbAUtD8mydpAN8GTGCnM
szp1gvwwDwYDVR0TAQH/BAUwAwEB/zAOBgNVHQ8BAf8EBAMCAYYwDQYJKoZIhvcN
AQELBQADggEBABAgmur3srK1/jiZLT/iIzDpG47KHFZ/DjSuGL78lf3wVniF3VD0
SVSGG5AylX39woEV1QnsneJsX4bvwxdvA0FGDZCt3uMbtAnNtZ0hFrTh70yXk37b
6DKTQd9ZbhxVV0JeEjnJ2ebCs10OQGvT/EbDVsTnCuZoleaJhqsP+OOwJyuZxeBW
vNF7f3WmKEzwdvsUZ+IE+e/OXdQ5CBPuoYQXCNYdIdZNyHrS+/DUw4yyHHEaSlED
TrNbArjNoqAPKGL0oJ61/vLLWl2TFxXDwVn92sCEgkQQ4lfWYM7XN4As6UEp4JoI
QK4hOrovrfrKD2FEgFCvNzFrTS2XAjffnrM=
-----END CERTIFICATE-----
