Certificate:
    Data:
        Version: 3 (0x2)
        Serial Number: 8 (0x8)
    Signature Algorithm: sha256WithRSAEncryption
        Issuer: C=DE, O=haw-hamburg, OU=informatik, CN=CA-diana-yavuz
        Validity
            Not Before: Nov 13 17:44:28 2016 GMT
            Not After : Dec 11 17:44:28 2016 GMT
        Subject: C=DE, O=haw-hamburg, OU=informatik, CN=diana-yavuz.informatik.haw-hamburg.de
        Subject Public Key Info:
            Public Key Algorithm: rsaEncryption
                Public-Key: (2048 bit)
                Modulus:
                    00:d1:96:bd:0c:f7:09:fc:d6:2b:49:48:49:5b:54:
                    f6:6f:31:55:d3:65:f4:5c:66:28:7b:61:08:89:ca:
                    4c:ee:bb:bf:bb:9a:be:8e:89:e2:93:1b:b1:18:d6:
                    a8:90:fd:70:47:e3:4c:9e:6e:29:1a:70:57:1d:82:
                    75:a2:fc:f0:c6:00:4b:76:e8:ed:11:a5:16:9d:8f:
                    8d:02:9a:8b:b6:30:e4:fb:e8:27:97:98:0b:82:8f:
                    96:3c:1d:8c:9a:fe:04:c0:0b:cc:7c:bb:6a:f6:9d:
                    1e:61:8a:4c:cb:15:51:34:b6:c7:98:0f:59:f0:02:
                    0c:d3:3c:67:d2:d2:24:bf:2a:da:8a:79:01:26:02:
                    b6:dc:6b:05:26:6c:b2:33:62:01:05:86:e7:c5:4c:
                    c1:25:da:f5:6a:6a:57:5a:5f:44:bc:02:37:a2:c6:
                    8c:c9:4b:77:0e:31:9e:53:6c:69:df:1d:4f:1e:f7:
                    03:1e:b7:fd:82:c2:6f:f8:e0:6e:0b:a4:7d:52:a9:
                    4b:9c:a9:bd:01:f2:70:02:75:52:68:fe:41:38:55:
                    a5:72:c7:ba:88:60:50:10:b4:79:33:01:55:a1:93:
                    2e:a5:9a:27:19:27:da:6e:31:08:2f:0d:01:c3:19:
                    9a:0e:e4:7e:de:0d:5d:51:16:48:0c:f8:17:6c:a1:
                    a6:e3
                Exponent: 65537 (0x10001)
        X509v3 extensions:
            X509v3 Basic Constraints: 
                CA:FALSE
            Netscape Cert Type: 
                SSL Server
            Netscape Comment: 
                OpenSSL Generated Server Certificate
            X509v3 Subject Key Identifier: 
                FD:29:E2:B1:33:AF:42:85:65:F9:E6:99:CC:36:A7:5F:4F:FE:95:25
            X509v3 Authority Key Identifier: 
                keyid:F0:60:A8:4A:14:B2:34:73:E1:B8:43:9A:B4:E0:BD:3B:B6:F5:12:30

            X509v3 Key Usage: 
                Digital Signature, Non Repudiation
    Signature Algorithm: sha256WithRSAEncryption
         7c:50:e4:76:fb:5e:5b:99:f6:c8:d6:de:2c:6e:37:8d:78:d5:
         56:7a:e0:33:54:a7:5a:2e:e6:d3:6e:47:ef:0a:68:56:39:f8:
         2d:eb:8b:ff:04:69:6e:83:c7:9e:32:e3:4d:13:be:b5:c4:dd:
         e4:94:a1:77:ad:bc:60:a6:a0:e8:c9:76:56:10:aa:11:95:bd:
         02:82:58:68:22:20:41:0d:9f:6e:da:83:4b:35:fa:e7:a9:d4:
         44:47:54:70:17:4a:01:14:d5:16:ec:12:34:0d:91:6b:66:bc:
         0c:5f:e0:e3:07:a5:71:8e:2d:05:e5:a5:f5:73:37:0f:7d:e6:
         a4:38:44:72:24:09:61:f2:56:2a:87:6e:70:ef:47:40:52:16:
         10:d5:a1:3c:f5:0d:3d:56:88:07:fb:e6:ca:50:cd:37:e5:f4:
         ec:9b:1e:84:30:79:f2:9f:72:80:7c:0d:74:04:dd:74:cd:d4:
         e2:48:9d:d5:21:2c:1a:20:20:6d:bd:a8:af:9f:df:18:de:f6:
         00:0e:e3:a7:84:a7:54:ab:f4:39:20:61:11:65:6a:0e:7e:33:
         51:ea:47:0e:9a:4d:5a:02:2c:cd:ac:51:51:08:96:ec:9f:7f:
         f1:9f:82:27:8e:14:db:10:49:b8:22:35:ad:63:d7:7b:db:71:
         13:8f:82:17
-----BEGIN CERTIFICATE-----
MIID2DCCAsCgAwIBAgIBCDANBgkqhkiG9w0BAQsFADBRMQswCQYDVQQGEwJERTEU
MBIGA1UECgwLaGF3LWhhbWJ1cmcxEzARBgNVBAsMCmluZm9ybWF0aWsxFzAVBgNV
BAMMDkNBLWRpYW5hLXlhdnV6MB4XDTE2MTExMzE3NDQyOFoXDTE2MTIxMTE3NDQy
OFowaDELMAkGA1UEBhMCREUxFDASBgNVBAoMC2hhdy1oYW1idXJnMRMwEQYDVQQL
DAppbmZvcm1hdGlrMS4wLAYDVQQDDCVkaWFuYS15YXZ1ei5pbmZvcm1hdGlrLmhh
dy1oYW1idXJnLmRlMIIBIjANBgkqhkiG9w0BAQEFAAOCAQ8AMIIBCgKCAQEA0Za9
DPcJ/NYrSUhJW1T2bzFV02X0XGYoe2EIicpM7ru/u5q+jonikxuxGNaokP1wR+NM
nm4pGnBXHYJ1ovzwxgBLdujtEaUWnY+NApqLtjDk++gnl5gLgo+WPB2Mmv4EwAvM
fLtq9p0eYYpMyxVRNLbHmA9Z8AIM0zxn0tIkvyrainkBJgK23GsFJmyyM2IBBYbn
xUzBJdr1ampXWl9EvAI3osaMyUt3DjGeU2xp3x1PHvcDHrf9gsJv+OBuC6R9UqlL
nKm9AfJwAnVSaP5BOFWlcse6iGBQELR5MwFVoZMupZonGSfabjEILw0BwxmaDuR+
3g1dURZIDPgXbKGm4wIDAQABo4GjMIGgMAkGA1UdEwQCMAAwEQYJYIZIAYb4QgEB
BAQDAgZAMDMGCWCGSAGG+EIBDQQmFiRPcGVuU1NMIEdlbmVyYXRlZCBTZXJ2ZXIg
Q2VydGlmaWNhdGUwHQYDVR0OBBYEFP0p4rEzr0KFZfnmmcw2p19P/pUlMB8GA1Ud
IwQYMBaAFPBgqEoUsjRz4bhDmrTgvTu29RIwMAsGA1UdDwQEAwIGwDANBgkqhkiG
9w0BAQsFAAOCAQEAfFDkdvteW5n2yNbeLG43jXjVVnrgM1SnWi7m025H7wpoVjn4
LeuL/wRpboPHnjLjTRO+tcTd5JShd628YKag6Ml2VhCqEZW9AoJYaCIgQQ2fbtqD
SzX656nUREdUcBdKARTVFuwSNA2Ra2a8DF/g4welcY4tBeWl9XM3D33mpDhEciQJ
YfJWKoducO9HQFIWENWhPPUNPVaIB/vmylDNN+X07JsehDB58p9ygHwNdATddM3U
4kid1SEsGiAgbb2or5/fGN72AA7jp4SnVKv0OSBhEWVqDn4zUepHDppNWgIszaxR
UQiW7J9/8Z+CJ44U2xBJuCI1rWPXe9txE4+CFw==
-----END CERTIFICATE-----
-----BEGIN X509 CRL-----
MIIB+DCB4QIBATANBgkqhkiG9w0BAQsFADBRMQswCQYDVQQGEwJERTEUMBIGA1UE
CgwLaGF3LWhhbWJ1cmcxEzARBgNVBAsMCmluZm9ybWF0aWsxFzAVBgNVBAMMDkNB
LWRpYW5hLXlhdnV6Fw0xNjExMTMxNzQ0MjlaFw0xNjEyMTExNzQ0MjlaoFwwWjBY
BgNVHSMEUTBPgBTwYKhKFLI0c+G4Q5q04L07tvUSMKE0pDIwMDELMAkGA1UEBhMC
REUxFDASBgNVBAoMC2hhdy1oYW1idXJnMQswCQYDVQQDDAJDQYIBCjANBgkqhkiG
9w0BAQsFAAOCAQEAHFIdzOy7EEqsqSX/ETPXiJiC0+jBV+tbwpubsIWqFzjWTl3W
Hma+0VVOg1VTc9wtKhk/fo0zo3mpwmAr9uq0NKQuVGmNi621Oq15WpHmFOJazhoA
S1biKymKjFfDydCiCZMAmONoTFtZw6ALEuYgxqoZD6DNXv9x7sU3tJCkY6RKsRbG
0eaD0NQOgBPJQ1mVew/vNrs9qprIQjsZhN8FuoJQKNbtVdYckQt42gLk6x/q5QjL
YpUK6GDLIC9o+uFfqP5z6nBX33PGlfays1DvYZT9GCM+32QR0E+U2qmukhmAxm9b
aO8f2u2JU74mt1q4Z8Hl5nYsiQgoL8S1qtaqXg==
-----END X509 CRL-----
