Certificate:
    Data:
        Version: 3 (0x2)
        Serial Number: 1 (0x1)
    Signature Algorithm: sha256WithRSAEncryption
        Issuer: C=DE, O=haw-hamburg, OU=informatik, CN=CA-diana-yavuz
        Validity
            Not Before: Nov 12 22:01:57 2016 GMT
            Not After : Dec 10 22:01:57 2016 GMT
        Subject: C=DE, O=haw-hamburg, OU=informatik, CN=diana-yavuz.informatik.haw-hamburg.de
        Subject Public Key Info:
            Public Key Algorithm: rsaEncryption
                Public-Key: (2048 bit)
                Modulus:
                    00:bc:3d:70:fc:ca:6c:51:f2:4a:02:3e:13:d9:15:
                    35:0b:da:b2:57:d4:92:e1:0c:a9:0b:dd:76:ae:dd:
                    90:d2:61:2d:43:2f:c4:c8:3e:2b:7f:e4:ea:34:ec:
                    fc:27:4f:54:bf:14:a3:51:03:34:79:d9:49:39:13:
                    ee:ae:cb:f5:17:a6:09:50:24:cf:a3:ca:26:46:2a:
                    25:2b:dc:8a:fd:d6:c5:6e:c1:70:00:f2:22:5b:3b:
                    de:4a:ec:3d:38:56:3d:0f:63:8d:80:79:d2:a0:ef:
                    b3:fb:55:b8:06:bd:a6:db:cd:37:82:05:d8:39:0b:
                    d7:dc:1d:a3:49:34:f9:c9:ca:4c:d6:99:69:cf:9c:
                    5e:3d:13:4d:f3:4a:0c:49:5b:10:10:fb:56:23:e4:
                    89:fd:af:a2:da:de:4d:fb:a4:0c:36:a4:76:4b:87:
                    0c:27:42:c8:a1:f5:2b:c1:07:90:5e:cd:c4:6b:b2:
                    73:df:2b:2f:8e:50:9e:89:c1:07:73:ad:26:5f:df:
                    04:5f:6f:d8:06:b0:35:64:0b:d4:ec:81:07:9a:52:
                    59:1b:fd:fe:06:b4:77:5d:40:81:b1:18:42:32:59:
                    b3:0d:bc:3d:cf:e3:15:b2:07:bd:b5:61:d6:42:ac:
                    78:e9:17:cb:09:07:99:e1:79:6e:46:d0:73:39:b2:
                    72:d3
                Exponent: 65537 (0x10001)
        X509v3 extensions:
            X509v3 Basic Constraints: 
                CA:FALSE
            Netscape Cert Type: 
                SSL Server
            X509v3 Subject Key Identifier: 
                A6:86:13:24:80:48:AA:7D:19:EE:85:A6:A1:5E:88:CE:EC:EB:52:60
            X509v3 Authority Key Identifier: 
                keyid:33:F9:9C:9F:75:BD:B2:9F:BA:86:E3:8B:94:1F:07:84:DF:6A:8A:FA

    Signature Algorithm: sha256WithRSAEncryption
         39:97:7a:20:c5:e9:43:96:08:e3:3c:31:3e:4c:a1:84:18:a3:
         4d:29:d5:4a:b6:5c:85:99:60:02:e3:35:32:f1:03:25:f6:1c:
         a1:7e:79:25:bf:fe:04:eb:fc:99:5d:16:ce:c7:1a:06:73:00:
         c2:bb:da:7e:21:4b:70:b0:2b:b2:d4:7b:65:db:8a:f7:78:ae:
         50:ae:d5:5b:c4:29:96:e6:e5:7f:d4:68:f3:cb:d3:81:68:2a:
         a7:b3:3c:7b:1b:8a:01:1d:6c:ec:d6:09:fa:5c:1e:33:49:c7:
         91:79:73:5a:96:98:86:22:32:de:57:13:cd:dd:59:ce:77:a1:
         bb:bc:37:ae:da:97:1f:26:4e:cb:5a:e6:d5:3b:72:bc:51:68:
         5a:02:4a:d5:87:13:36:68:8b:f1:4e:08:3e:be:c5:48:45:13:
         67:bd:f2:82:6e:c2:d3:7c:63:66:4a:e8:72:d8:7a:75:93:de:
         07:8d:f8:8e:d5:8c:8d:e2:7c:90:c9:16:29:3a:03:07:a1:f7:
         85:41:c1:7f:87:10:b0:47:47:c4:cb:66:d9:80:22:22:0c:f3:
         fb:42:70:91:90:46:04:06:e0:ea:8e:2b:25:28:be:6a:65:7d:
         2b:d8:aa:64:be:76:d4:b5:75:18:3b:ec:96:20:44:ab:69:a9:
         1b:ce:f5:3c
-----BEGIN CERTIFICATE-----
MIIDlDCCAnygAwIBAgIBATANBgkqhkiG9w0BAQsFADBRMQswCQYDVQQGEwJERTEU
MBIGA1UECgwLaGF3LWhhbWJ1cmcxEzARBgNVBAsMCmluZm9ybWF0aWsxFzAVBgNV
BAMMDkNBLWRpYW5hLXlhdnV6MB4XDTE2MTExMjIyMDE1N1oXDTE2MTIxMDIyMDE1
N1owaDELMAkGA1UEBhMCREUxFDASBgNVBAoMC2hhdy1oYW1idXJnMRMwEQYDVQQL
DAppbmZvcm1hdGlrMS4wLAYDVQQDDCVkaWFuYS15YXZ1ei5pbmZvcm1hdGlrLmhh
dy1oYW1idXJnLmRlMIIBIjANBgkqhkiG9w0BAQEFAAOCAQ8AMIIBCgKCAQEAvD1w
/MpsUfJKAj4T2RU1C9qyV9SS4QypC912rt2Q0mEtQy/EyD4rf+TqNOz8J09UvxSj
UQM0edlJORPursv1F6YJUCTPo8omRiolK9yK/dbFbsFwAPIiWzveSuw9OFY9D2ON
gHnSoO+z+1W4Br2m2803ggXYOQvX3B2jSTT5ycpM1plpz5xePRNN80oMSVsQEPtW
I+SJ/a+i2t5N+6QMNqR2S4cMJ0LIofUrwQeQXs3Ea7Jz3ysvjlCeicEHc60mX98E
X2/YBrA1ZAvU7IEHmlJZG/3+BrR3XUCBsRhCMlmzDbw9z+MVsge9tWHWQqx46RfL
CQeZ4XluRtBzObJy0wIDAQABo2AwXjAJBgNVHRMEAjAAMBEGCWCGSAGG+EIBAQQE
AwIGQDAdBgNVHQ4EFgQUpoYTJIBIqn0Z7oWmoV6IzuzrUmAwHwYDVR0jBBgwFoAU
M/mcn3W9sp+6huOLlB8HhN9qivowDQYJKoZIhvcNAQELBQADggEBADmXeiDF6UOW
COM8MT5MoYQYo00p1Uq2XIWZYALjNTLxAyX2HKF+eSW//gTr/JldFs7HGgZzAMK7
2n4hS3CwK7LUe2Xbivd4rlCu1VvEKZbm5X/UaPPL04FoKqezPHsbigEdbOzWCfpc
HjNJx5F5c1qWmIYiMt5XE83dWc53obu8N67alx8mTsta5tU7crxRaFoCStWHEzZo
i/FOCD6+xUhFE2e98oJuwtN8Y2ZK6HLYenWT3geN+I7VjI3ifJDJFik6Aweh94VB
wX+HELBHR8TLZtmAIiIM8/tCcJGQRgQG4OqOKyUovmplfSvYqmS+dtS1dRg77JYg
RKtpqRvO9Tw=
-----END CERTIFICATE-----
