Certificate:
    Data:
        Version: 3 (0x2)
        Serial Number: 1 (0x1)
    Signature Algorithm: sha256WithRSAEncryption
        Issuer: C=DE, O=haw-hamburg, OU=informatik, CN=CA-diana-yavuz
        Validity
            Not Before: Nov 13 16:39:22 2016 GMT
            Not After : Dec 11 16:39:22 2016 GMT
        Subject: C=DE, O=haw-hamburg, OU=informatik, CN=diana-yavuz.informatik.haw-hamburg.de
        Subject Public Key Info:
            Public Key Algorithm: rsaEncryption
                Public-Key: (2048 bit)
                Modulus:
                    00:d9:30:04:5d:05:be:17:34:51:a3:f2:1a:22:81:
                    49:7c:9e:45:5f:55:8c:01:a5:22:e4:d8:c8:73:64:
                    da:82:25:da:ae:6e:d7:63:ff:60:ab:23:b6:57:e3:
                    6e:2e:e5:73:92:7d:18:a5:38:04:98:e0:44:1f:75:
                    d0:d7:7c:21:88:5a:10:8e:95:3d:7c:7e:68:86:9b:
                    26:07:ef:02:c8:fe:8d:35:86:f5:ba:2a:00:ba:5b:
                    7b:ec:22:8a:48:5b:d6:50:6a:bf:f5:97:17:15:df:
                    aa:fc:d8:b5:72:20:61:b0:8f:2a:e9:99:b5:e0:31:
                    a3:7a:ad:0f:eb:ce:d9:bc:42:ae:6c:92:1f:11:5c:
                    8d:7b:73:4a:bc:19:40:16:8e:9a:aa:ea:87:42:77:
                    45:8b:bd:77:27:c5:b8:01:2c:cf:ef:af:69:00:31:
                    90:18:c4:7a:5b:a1:6b:6e:be:72:ab:ca:c1:13:15:
                    7d:bd:ee:eb:bf:b2:d6:1c:6a:41:c0:56:ba:96:6c:
                    d9:2d:8b:0f:ff:12:2e:63:35:5d:a8:36:ce:5b:e5:
                    6c:7f:80:db:21:f2:e3:95:84:36:74:77:1b:da:a8:
                    a1:7e:f3:74:be:c3:ed:a8:4a:2a:92:32:22:c3:d3:
                    30:f8:dd:50:a4:56:80:5a:91:3c:db:8e:b4:b8:63:
                    c1:4d
                Exponent: 65537 (0x10001)
        X509v3 extensions:
            X509v3 Basic Constraints: 
                CA:FALSE
            Netscape Cert Type: 
                SSL Client, S/MIME
            Netscape Comment: 
                OpenSSL Generated Client Certificate
            X509v3 Subject Key Identifier: 
                6F:5C:C5:1F:2A:7C:24:FF:C7:BD:14:FA:7E:E4:4F:0F:91:A5:33:98
            X509v3 Authority Key Identifier: 
                keyid:99:DF:63:35:2A:C9:F0:A6:A6:78:7E:72:94:2D:B3:0B:83:EA:F0:DB

            X509v3 Key Usage: critical
                Digital Signature, Non Repudiation, Key Encipherment
            X509v3 Extended Key Usage: 
                TLS Web Client Authentication, E-mail Protection
    Signature Algorithm: sha256WithRSAEncryption
         5a:b1:c7:61:07:79:3b:7b:3b:5f:bd:41:b9:88:4d:c4:1f:1c:
         f0:67:67:4a:1f:85:fc:49:17:b4:db:c7:90:fd:6f:cc:61:6d:
         1c:34:4f:46:c5:ed:2e:4b:d4:aa:f4:7d:39:20:0d:2e:a6:35:
         29:d8:64:86:1d:1c:cf:da:72:60:04:d2:a3:fe:40:17:c2:a3:
         5d:47:2c:4b:1e:4a:ad:41:d8:ba:a4:66:cc:4d:41:c6:0c:0d:
         20:0c:02:87:85:c8:61:56:dc:92:0d:c5:1e:92:01:52:df:9d:
         a6:ee:9d:26:b3:4d:32:e2:e6:27:f4:9f:3a:e6:a7:a1:4f:0d:
         a0:85:fd:15:a8:68:61:7c:b6:d6:eb:18:e2:14:c9:5e:14:f2:
         9d:41:84:a9:03:25:3f:6b:04:97:eb:d2:7e:6c:ac:f4:24:bd:
         cd:3b:a2:71:3d:25:b6:d5:eb:94:3b:74:a7:10:c9:ed:d6:84:
         b1:37:fb:b8:0f:ef:cf:90:01:01:e6:d9:1f:49:22:69:8e:be:
         0b:32:47:a6:f6:a9:fe:cf:09:ba:52:d2:57:27:8e:20:5e:b2:
         f0:1c:02:e3:50:1a:d4:00:f2:cc:97:ef:18:c5:8f:01:13:f4:
         77:66:b5:f4:33:a6:bf:a1:06:1d:06:3a:64:81:2e:3f:4b:c4:
         f4:25:67:0e
-----BEGIN CERTIFICATE-----
MIID+jCCAuKgAwIBAgIBATANBgkqhkiG9w0BAQsFADBRMQswCQYDVQQGEwJERTEU
MBIGA1UECgwLaGF3LWhhbWJ1cmcxEzARBgNVBAsMCmluZm9ybWF0aWsxFzAVBgNV
BAMMDkNBLWRpYW5hLXlhdnV6MB4XDTE2MTExMzE2MzkyMloXDTE2MTIxMTE2Mzky
MlowaDELMAkGA1UEBhMCREUxFDASBgNVBAoMC2hhdy1oYW1idXJnMRMwEQYDVQQL
DAppbmZvcm1hdGlrMS4wLAYDVQQDDCVkaWFuYS15YXZ1ei5pbmZvcm1hdGlrLmhh
dy1oYW1idXJnLmRlMIIBIjANBgkqhkiG9w0BAQEFAAOCAQ8AMIIBCgKCAQEA2TAE
XQW+FzRRo/IaIoFJfJ5FX1WMAaUi5NjIc2TagiXarm7XY/9gqyO2V+NuLuVzkn0Y
pTgEmOBEH3XQ13whiFoQjpU9fH5ohpsmB+8CyP6NNYb1uioAult77CKKSFvWUGq/
9ZcXFd+q/Ni1ciBhsI8q6Zm14DGjeq0P687ZvEKubJIfEVyNe3NKvBlAFo6aquqH
QndFi713J8W4ASzP769pADGQGMR6W6Frbr5yq8rBExV9ve7rv7LWHGpBwFa6lmzZ
LYsP/xIuYzVdqDbOW+Vsf4DbIfLjlYQ2dHcb2qihfvN0vsPtqEoqkjIiw9Mw+N1Q
pFaAWpE82460uGPBTQIDAQABo4HFMIHCMAkGA1UdEwQCMAAwEQYJYIZIAYb4QgEB
BAQDAgWgMDMGCWCGSAGG+EIBDQQmFiRPcGVuU1NMIEdlbmVyYXRlZCBDbGllbnQg
Q2VydGlmaWNhdGUwHQYDVR0OBBYEFG9cxR8qfCT/x70U+n7kTw+RpTOYMB8GA1Ud
IwQYMBaAFJnfYzUqyfCmpnh+cpQtswuD6vDbMA4GA1UdDwEB/wQEAwIF4DAdBgNV
HSUEFjAUBggrBgEFBQcDAgYIKwYBBQUHAwQwDQYJKoZIhvcNAQELBQADggEBAFqx
x2EHeTt7O1+9QbmITcQfHPBnZ0ofhfxJF7Tbx5D9b8xhbRw0T0bF7S5L1Kr0fTkg
DS6mNSnYZIYdHM/acmAE0qP+QBfCo11HLEseSq1B2LqkZsxNQcYMDSAMAoeFyGFW
3JINxR6SAVLfnabunSazTTLi5if0nzrmp6FPDaCF/RWoaGF8ttbrGOIUyV4U8p1B
hKkDJT9rBJfr0n5srPQkvc07onE9JbbV65Q7dKcQye3WhLE3+7gP78+QAQHm2R9J
ImmOvgsyR6b2qf7PCbpS0lcnjiBesvAcAuNQGtQA8syX7xjFjwET9HdmtfQzpr+h
Bh0GOmSBLj9LxPQlZw4=
-----END CERTIFICATE-----
