Certificate:
    Data:
        Version: 3 (0x2)
        Serial Number: 2 (0x2)
    Signature Algorithm: sha256WithRSAEncryption
        Issuer: C=DE, O=haw-hamburg, OU=informatik, CN=CA-diana-yavuz
        Validity
            Not Before: Nov 13 16:41:49 2016 GMT
            Not After : Dec 11 16:41:49 2016 GMT
        Subject: C=DE, O=haw-hamburg, OU=informatik, CN=diana-yavuz.informatik.haw-hamburg.de
        Subject Public Key Info:
            Public Key Algorithm: rsaEncryption
                Public-Key: (2048 bit)
                Modulus:
                    00:d1:02:75:6e:15:81:5e:05:6b:e4:51:f3:c3:2a:
                    83:33:d9:8f:bd:1a:4d:ba:cb:1a:73:96:0b:8a:97:
                    39:7b:ea:00:a1:13:17:14:b8:02:93:83:96:61:e0:
                    81:bd:7d:b9:78:82:39:1c:46:c2:dc:12:fd:05:ee:
                    3d:17:d9:6d:04:04:35:15:ed:c2:7e:fc:4a:f2:8a:
                    61:d6:f2:98:55:b6:77:ee:9e:88:b9:89:21:4c:c3:
                    1f:0f:b8:a7:db:9c:c3:46:47:4f:a7:37:7d:cf:69:
                    2d:54:1c:c8:2f:cc:b4:39:cb:a8:70:9a:07:3b:71:
                    3f:59:23:26:01:f9:52:67:a7:f7:89:9d:e6:d6:6c:
                    17:0b:d1:74:9c:b9:e9:55:01:fa:72:e4:07:2e:c1:
                    80:6d:08:87:47:84:31:e2:41:62:48:3b:d1:91:e9:
                    40:bd:76:a2:3d:79:ce:c5:e8:5f:1f:77:0e:29:05:
                    d7:0b:b5:3f:b0:fb:83:64:81:b9:32:4f:44:7e:23:
                    d6:2a:76:92:62:7c:6d:0f:5a:11:43:a9:55:11:9f:
                    0a:6b:86:44:d7:2a:ec:bf:da:c1:c4:9b:2c:d0:94:
                    38:89:e1:e2:17:0d:ee:d5:26:36:77:79:70:6c:9b:
                    bf:52:27:f4:a0:f7:5e:84:16:97:bd:dd:c3:16:e8:
                    43:13
                Exponent: 65537 (0x10001)
        X509v3 extensions:
            X509v3 Basic Constraints: 
                CA:FALSE
            Netscape Cert Type: 
                SSL Client, S/MIME
            Netscape Comment: 
                OpenSSL Generated Client Certificate
            X509v3 Subject Key Identifier: 
                AA:ED:84:40:FF:15:38:B4:B3:74:F8:7E:E0:D3:98:63:E0:6F:05:18
            X509v3 Authority Key Identifier: 
                keyid:5D:BE:46:DE:59:7E:9A:5B:D2:3D:37:F2:F8:E2:10:12:29:C1:EF:30

            X509v3 Key Usage: critical
                Digital Signature, Non Repudiation, Key Encipherment
            X509v3 Extended Key Usage: 
                TLS Web Client Authentication, E-mail Protection
    Signature Algorithm: sha256WithRSAEncryption
         29:42:1c:18:36:d9:c3:02:7a:72:5a:66:7a:f4:00:8a:8c:9e:
         11:b8:55:38:e1:d9:29:5e:3b:82:d5:14:54:23:9e:44:2e:32:
         ae:5d:53:d2:20:2a:5e:90:a3:d5:7e:cc:1c:49:a7:fe:b2:ac:
         74:ef:bb:44:6b:ed:24:77:e9:e2:13:ec:bd:d1:d9:36:9a:af:
         9d:aa:76:07:3b:fb:f8:96:91:d5:2a:da:e5:c5:49:6d:94:95:
         c6:d1:8a:7f:59:e2:d0:57:5e:d6:6e:cd:f6:9d:74:11:45:6f:
         da:5d:7c:a9:c9:11:70:24:fa:53:ed:cf:b6:75:92:2f:58:c5:
         0a:1a:db:3b:b2:a4:80:13:87:a8:36:a6:dc:36:04:36:d9:be:
         ad:45:c8:e6:4f:4a:8e:e5:54:d9:da:2d:f5:d7:db:2b:07:d4:
         83:bc:b9:34:10:3d:1c:ab:91:1d:f3:bc:0a:ad:68:fc:24:6f:
         74:48:a7:9d:de:ff:cb:8b:18:3e:24:58:5b:30:90:06:8d:63:
         95:f6:29:f1:ff:84:8e:a3:64:83:1a:e7:30:8b:16:28:86:c7:
         39:4d:19:33:00:a8:13:1f:a7:a5:37:86:24:f2:8b:46:a9:ff:
         b6:c6:95:dc:b2:5b:cb:95:14:32:a1:ed:b3:8e:94:a6:5f:c1:
         0b:77:a4:23
-----BEGIN CERTIFICATE-----
MIID+jCCAuKgAwIBAgIBAjANBgkqhkiG9w0BAQsFADBRMQswCQYDVQQGEwJERTEU
MBIGA1UECgwLaGF3LWhhbWJ1cmcxEzARBgNVBAsMCmluZm9ybWF0aWsxFzAVBgNV
BAMMDkNBLWRpYW5hLXlhdnV6MB4XDTE2MTExMzE2NDE0OVoXDTE2MTIxMTE2NDE0
OVowaDELMAkGA1UEBhMCREUxFDASBgNVBAoMC2hhdy1oYW1idXJnMRMwEQYDVQQL
DAppbmZvcm1hdGlrMS4wLAYDVQQDDCVkaWFuYS15YXZ1ei5pbmZvcm1hdGlrLmhh
dy1oYW1idXJnLmRlMIIBIjANBgkqhkiG9w0BAQEFAAOCAQ8AMIIBCgKCAQEA0QJ1
bhWBXgVr5FHzwyqDM9mPvRpNussac5YLipc5e+oAoRMXFLgCk4OWYeCBvX25eII5
HEbC3BL9Be49F9ltBAQ1Fe3CfvxK8oph1vKYVbZ37p6IuYkhTMMfD7in25zDRkdP
pzd9z2ktVBzIL8y0OcuocJoHO3E/WSMmAflSZ6f3iZ3m1mwXC9F0nLnpVQH6cuQH
LsGAbQiHR4Qx4kFiSDvRkelAvXaiPXnOxehfH3cOKQXXC7U/sPuDZIG5Mk9EfiPW
KnaSYnxtD1oRQ6lVEZ8Ka4ZE1yrsv9rBxJss0JQ4ieHiFw3u1SY2d3lwbJu/Uif0
oPdehBaXvd3DFuhDEwIDAQABo4HFMIHCMAkGA1UdEwQCMAAwEQYJYIZIAYb4QgEB
BAQDAgWgMDMGCWCGSAGG+EIBDQQmFiRPcGVuU1NMIEdlbmVyYXRlZCBDbGllbnQg
Q2VydGlmaWNhdGUwHQYDVR0OBBYEFKrthED/FTi0s3T4fuDTmGPgbwUYMB8GA1Ud
IwQYMBaAFF2+Rt5Zfppb0j038vjiEBIpwe8wMA4GA1UdDwEB/wQEAwIF4DAdBgNV
HSUEFjAUBggrBgEFBQcDAgYIKwYBBQUHAwQwDQYJKoZIhvcNAQELBQADggEBAClC
HBg22cMCenJaZnr0AIqMnhG4VTjh2SleO4LVFFQjnkQuMq5dU9IgKl6Qo9V+zBxJ
p/6yrHTvu0Rr7SR36eIT7L3R2Taar52qdgc7+/iWkdUq2uXFSW2UlcbRin9Z4tBX
XtZuzfaddBFFb9pdfKnJEXAk+lPtz7Z1ki9YxQoa2zuypIATh6g2ptw2BDbZvq1F
yOZPSo7lVNnaLfXX2ysH1IO8uTQQPRyrkR3zvAqtaPwkb3RIp53e/8uLGD4kWFsw
kAaNY5X2KfH/hI6jZIMa5zCLFiiGxzlNGTMAqBMfp6U3hiTyi0ap/7bGldyyW8uV
FDKh7bOOlKZfwQt3pCM=
-----END CERTIFICATE-----
