Certificate:
    Data:
        Version: 3 (0x2)
        Serial Number: 2 (0x2)
    Signature Algorithm: sha256WithRSAEncryption
        Issuer: C=DE, O=haw-hamburg, OU=informatik, CN=CA-diana-yavuz
        Validity
            Not Before: Nov  8 13:54:01 2016 GMT
            Not After : Dec  6 13:54:01 2016 GMT
        Subject: C=DE, O=haw-hamburg, OU=informatik, CN=diana-yavuz.informatik.haw-hamburg.de
        Subject Public Key Info:
            Public Key Algorithm: rsaEncryption
                Public-Key: (2048 bit)
                Modulus:
                    00:bf:98:60:d4:3c:ca:0e:b9:32:8e:b1:e0:78:c6:
                    30:91:ed:cd:a9:d2:02:7f:bf:10:34:1a:af:ce:fc:
                    25:d1:74:bf:73:fc:2d:60:c3:27:f6:ad:1a:0b:7d:
                    e4:df:ab:6f:d0:63:a2:ee:ae:62:c1:8c:a6:97:02:
                    c5:5a:b6:fd:b9:d3:9a:33:e3:36:b1:fb:76:58:22:
                    3e:58:a6:63:71:d1:84:c9:0f:69:fe:c9:3f:82:7d:
                    82:07:5d:19:96:24:f7:12:b9:8e:01:70:7b:c6:96:
                    27:4e:6b:a5:f9:99:f9:35:11:bd:35:59:08:e4:66:
                    01:32:3c:aa:2b:8b:e4:01:57:13:98:ef:d1:03:db:
                    cb:27:b7:47:21:4d:96:d9:5e:84:c7:a3:dc:e7:1d:
                    69:53:21:0a:50:ff:f3:66:94:4f:83:6d:a4:c1:d9:
                    51:e3:c1:ac:4b:ba:7a:3f:49:67:81:7f:ff:b7:27:
                    a3:2f:67:8f:12:de:25:06:26:7a:3b:56:45:b3:1f:
                    92:29:a0:67:8c:31:3b:77:d6:b1:ef:60:dd:12:8e:
                    5f:c8:72:5b:7c:5e:e3:08:f2:0e:93:97:13:e9:61:
                    7e:a4:de:ab:a1:b2:9a:ef:67:7b:69:67:6d:a8:af:
                    f0:df:aa:07:1c:48:66:e4:61:d7:31:70:eb:8e:f3:
                    3e:43
                Exponent: 65537 (0x10001)
        X509v3 extensions:
            X509v3 Basic Constraints: 
                CA:TRUE
            X509v3 Subject Key Identifier: 
                DF:0E:29:C2:46:07:D5:C8:04:3A:2C:EE:C1:CA:0C:3F:6D:D6:55:5D
            X509v3 Authority Key Identifier: 
                keyid:6A:FA:69:45:4A:C7:F7:41:96:FE:CD:82:21:40:6A:76:4F:A6:46:48

    Signature Algorithm: sha256WithRSAEncryption
         3d:39:97:f4:74:f4:25:a4:77:5c:5b:a1:36:05:fb:d5:00:9f:
         50:91:f8:78:d6:66:a2:53:dc:c6:e8:b0:80:a2:7d:9d:2e:63:
         1a:32:98:6c:ef:ad:5c:e1:ff:15:dc:2b:77:fa:2b:bb:43:1d:
         4c:3b:47:25:ee:14:29:f6:af:bf:b0:6a:e2:f3:d1:d5:8a:3b:
         8e:a3:0c:5c:66:f1:8f:8d:20:5a:67:b3:07:c9:18:14:c8:5e:
         e8:10:41:53:d8:8a:54:d1:7f:f6:52:d8:1e:48:ef:60:39:6d:
         12:fb:92:32:ed:df:8b:08:55:b5:25:d9:96:22:d4:9c:ed:a1:
         fc:f8:aa:11:a1:31:1e:9c:cb:3c:16:67:2a:76:32:c4:ca:12:
         a8:32:28:b3:c9:0d:d4:05:b2:62:14:1c:66:9a:01:a3:eb:15:
         2c:bf:aa:2c:0a:cf:fc:8f:45:5d:60:a5:3d:5e:0e:08:a3:dd:
         b7:14:9e:11:b5:cc:5a:b9:0c:4a:26:2e:c9:eb:58:48:d0:60:
         4a:96:85:be:05:59:ef:6e:df:91:d0:99:b2:f4:84:27:e5:65:
         78:61:fe:ff:93:20:1b:fd:4d:55:e1:fa:37:60:04:31:26:65:
         67:93:08:24:36:7a:9e:81:67:6e:df:0a:4c:71:7f:e2:63:f9:
         2b:a6:9c:af
-----BEGIN CERTIFICATE-----
MIIDhDCCAmygAwIBAgIBAjANBgkqhkiG9w0BAQsFADBRMQswCQYDVQQGEwJERTEU
MBIGA1UECgwLaGF3LWhhbWJ1cmcxEzARBgNVBAsMCmluZm9ybWF0aWsxFzAVBgNV
BAMMDkNBLWRpYW5hLXlhdnV6MB4XDTE2MTEwODEzNTQwMVoXDTE2MTIwNjEzNTQw
MVowaDELMAkGA1UEBhMCREUxFDASBgNVBAoMC2hhdy1oYW1idXJnMRMwEQYDVQQL
DAppbmZvcm1hdGlrMS4wLAYDVQQDDCVkaWFuYS15YXZ1ei5pbmZvcm1hdGlrLmhh
dy1oYW1idXJnLmRlMIIBIjANBgkqhkiG9w0BAQEFAAOCAQ8AMIIBCgKCAQEAv5hg
1DzKDrkyjrHgeMYwke3NqdICf78QNBqvzvwl0XS/c/wtYMMn9q0aC33k36tv0GOi
7q5iwYymlwLFWrb9udOaM+M2sft2WCI+WKZjcdGEyQ9p/sk/gn2CB10ZliT3ErmO
AXB7xpYnTmul+Zn5NRG9NVkI5GYBMjyqK4vkAVcTmO/RA9vLJ7dHIU2W2V6Ex6Pc
5x1pUyEKUP/zZpRPg22kwdlR48GsS7p6P0lngX//tyejL2ePEt4lBiZ6O1ZFsx+S
KaBnjDE7d9ax72DdEo5fyHJbfF7jCPIOk5cT6WF+pN6robKa72d7aWdtqK/w36oH
HEhm5GHXMXDrjvM+QwIDAQABo1AwTjAMBgNVHRMEBTADAQH/MB0GA1UdDgQWBBTf
DinCRgfVyAQ6LO7Bygw/bdZVXTAfBgNVHSMEGDAWgBRq+mlFSsf3QZb+zYIhQGp2
T6ZGSDANBgkqhkiG9w0BAQsFAAOCAQEAPTmX9HT0JaR3XFuhNgX71QCfUJH4eNZm
olPcxuiwgKJ9nS5jGjKYbO+tXOH/Fdwrd/oru0MdTDtHJe4UKfavv7Bq4vPR1Yo7
jqMMXGbxj40gWmezB8kYFMhe6BBBU9iKVNF/9lLYHkjvYDltEvuSMu3fiwhVtSXZ
liLUnO2h/PiqEaExHpzLPBZnKnYyxMoSqDIos8kN1AWyYhQcZpoBo+sVLL+qLArP
/I9FXWClPV4OCKPdtxSeEbXMWrkMSiYuyetYSNBgSpaFvgVZ727fkdCZsvSEJ+Vl
eGH+/5MgG/1NVeH6N2AEMSZlZ5MIJDZ6noFnbt8KTHF/4mP5K6acrw==
-----END CERTIFICATE-----
