Certificate:
    Data:
        Version: 3 (0x2)
        Serial Number: 3 (0x3)
    Signature Algorithm: sha256WithRSAEncryption
        Issuer: C=DE, O=haw-hamburg, OU=informatik, CN=CA-diana-yavuz
        Validity
            Not Before: Nov  8 14:22:31 2016 GMT
            Not After : Dec  6 14:22:31 2016 GMT
        Subject: C=DE, O=haw-hamburg, OU=informatik, CN=diana-yavuz.informatik.haw-hamburg.de
        Subject Public Key Info:
            Public Key Algorithm: rsaEncryption
                Public-Key: (2048 bit)
                Modulus:
                    00:b8:86:a9:0d:11:b5:05:77:4e:71:2e:05:60:08:
                    07:3a:f6:e6:d9:db:cc:82:b1:ff:09:1b:22:ea:e3:
                    35:08:ed:09:7d:13:f0:6a:e4:5f:d0:4b:c2:8b:2f:
                    c8:c4:f2:99:61:a8:8f:2d:99:22:f9:ae:13:c0:ba:
                    8c:3f:48:ed:80:73:95:e2:5b:94:6e:ba:a8:49:8e:
                    43:ec:c0:35:99:08:b8:21:7e:a0:d1:cb:9f:cd:fb:
                    fb:b1:d1:25:7f:7c:f4:5f:56:5b:08:de:5c:9e:6f:
                    c7:0e:c0:89:f8:1c:55:19:be:d9:88:56:41:7f:4f:
                    5f:cc:15:71:ef:99:60:ad:b7:87:44:a9:e1:96:1e:
                    bf:74:55:be:1a:8b:0f:ae:0e:9e:15:be:a5:4f:b9:
                    6c:7c:89:77:9a:e0:20:98:0a:2b:22:36:2a:77:35:
                    d1:5d:0d:fc:a3:6a:93:a5:3f:7d:ad:f0:24:28:97:
                    59:5e:6c:af:10:f6:6e:05:33:f2:8c:63:63:18:dc:
                    08:fc:93:4a:d0:10:16:f6:35:d9:30:18:f0:47:1e:
                    98:ba:f0:2b:bc:d9:e7:c2:52:d6:0a:30:db:28:32:
                    78:a7:9b:1a:64:bd:46:7b:a2:9a:c7:9f:d5:cd:2f:
                    72:74:4c:80:99:9f:1a:76:49:e2:0b:c6:a6:c3:92:
                    74:4b
                Exponent: 65537 (0x10001)
        X509v3 extensions:
            X509v3 Basic Constraints: 
                CA:FALSE
            Netscape Cert Type: 
                SSL Server
            X509v3 Subject Key Identifier: 
                11:2D:38:9A:B2:6B:E6:74:89:87:D5:E6:8B:84:95:E4:B4:CF:7C:69
            X509v3 Authority Key Identifier: 
                keyid:6A:FA:69:45:4A:C7:F7:41:96:FE:CD:82:21:40:6A:76:4F:A6:46:48

    Signature Algorithm: sha256WithRSAEncryption
         5d:3e:b1:c7:b3:fd:26:d6:bf:29:e4:e4:3c:5b:e8:0e:80:a9:
         80:38:21:1e:cf:37:67:cc:b6:f1:32:ef:4f:4d:3c:a7:7f:72:
         40:b2:3e:a6:0d:96:11:c1:33:3c:22:3d:2f:c6:2d:a9:84:a3:
         97:b2:c5:94:74:5a:3c:11:3b:71:19:56:11:3c:88:73:30:f0:
         e4:42:73:c2:20:58:ec:e6:63:ae:0c:df:a9:48:68:b8:31:3f:
         37:0a:44:fe:63:2f:dc:31:8f:31:35:fb:cf:ed:03:98:ed:1a:
         f0:19:5b:7d:c1:8d:8b:39:0e:f4:19:57:f3:18:1c:05:86:10:
         f5:f0:1b:27:8e:95:f9:de:8c:be:b2:88:dc:78:ae:54:e3:ba:
         60:0d:6c:79:28:48:fc:58:60:42:a1:86:96:09:2c:f7:4d:39:
         a7:59:a5:cf:9e:1f:99:87:91:88:c5:2d:d4:63:0e:6a:d0:57:
         60:37:ae:93:60:18:13:e1:81:82:90:b0:39:6b:b7:38:48:6f:
         51:07:05:b1:24:59:35:50:82:a7:aa:93:4a:67:24:12:be:1f:
         2e:92:18:18:af:95:75:cb:03:07:b1:87:8e:13:4e:41:7d:27:
         b7:be:98:9e:66:7e:39:d5:e8:6f:e1:a8:c3:e9:7b:fd:f8:85:
         f4:dd:3e:50
-----BEGIN CERTIFICATE-----
MIIDlDCCAnygAwIBAgIBAzANBgkqhkiG9w0BAQsFADBRMQswCQYDVQQGEwJERTEU
MBIGA1UECgwLaGF3LWhhbWJ1cmcxEzARBgNVBAsMCmluZm9ybWF0aWsxFzAVBgNV
BAMMDkNBLWRpYW5hLXlhdnV6MB4XDTE2MTEwODE0MjIzMVoXDTE2MTIwNjE0MjIz
MVowaDELMAkGA1UEBhMCREUxFDASBgNVBAoMC2hhdy1oYW1idXJnMRMwEQYDVQQL
DAppbmZvcm1hdGlrMS4wLAYDVQQDDCVkaWFuYS15YXZ1ei5pbmZvcm1hdGlrLmhh
dy1oYW1idXJnLmRlMIIBIjANBgkqhkiG9w0BAQEFAAOCAQ8AMIIBCgKCAQEAuIap
DRG1BXdOcS4FYAgHOvbm2dvMgrH/CRsi6uM1CO0JfRPwauRf0EvCiy/IxPKZYaiP
LZki+a4TwLqMP0jtgHOV4luUbrqoSY5D7MA1mQi4IX6g0cufzfv7sdElf3z0X1Zb
CN5cnm/HDsCJ+BxVGb7ZiFZBf09fzBVx75lgrbeHRKnhlh6/dFW+GosPrg6eFb6l
T7lsfIl3muAgmAorIjYqdzXRXQ38o2qTpT99rfAkKJdZXmyvEPZuBTPyjGNjGNwI
/JNK0BAW9jXZMBjwRx6YuvArvNnnwlLWCjDbKDJ4p5saZL1Ge6Kax5/VzS9ydEyA
mZ8adkniC8amw5J0SwIDAQABo2AwXjAJBgNVHRMEAjAAMBEGCWCGSAGG+EIBAQQE
AwIGQDAdBgNVHQ4EFgQUES04mrJr5nSJh9Xmi4SV5LTPfGkwHwYDVR0jBBgwFoAU
avppRUrH90GW/s2CIUBqdk+mRkgwDQYJKoZIhvcNAQELBQADggEBAF0+scez/SbW
vynk5Dxb6A6AqYA4IR7PN2fMtvEy709NPKd/ckCyPqYNlhHBMzwiPS/GLamEo5ey
xZR0WjwRO3EZVhE8iHMw8ORCc8IgWOzmY64M36lIaLgxPzcKRP5jL9wxjzE1+8/t
A5jtGvAZW33BjYs5DvQZV/MYHAWGEPXwGyeOlfnejL6yiNx4rlTjumANbHkoSPxY
YEKhhpYJLPdNOadZpc+eH5mHkYjFLdRjDmrQV2A3rpNgGBPhgYKQsDlrtzhIb1EH
BbEkWTVQgqeqk0pnJBK+Hy6SGBivlXXLAwexh44TTkF9J7e+mJ5mfjnV6G/hqMPp
e/34hfTdPlA=
-----END CERTIFICATE-----
