Certificate:
    Data:
        Version: 3 (0x2)
        Serial Number: 3 (0x3)
    Signature Algorithm: sha256WithRSAEncryption
        Issuer: C=DE, O=haw-hamburg, OU=informatik, CN=CA-diana-yavuz
        Validity
            Not Before: Nov 13 16:42:30 2016 GMT
            Not After : Dec 11 16:42:30 2016 GMT
        Subject: C=DE, O=haw-hamburg, OU=informatik, CN=diana-yavuz.informatik.haw-hamburg.de
        Subject Public Key Info:
            Public Key Algorithm: rsaEncryption
                Public-Key: (2048 bit)
                Modulus:
                    00:e4:17:f0:53:55:39:7f:34:82:e0:f7:bc:7d:04:
                    38:b8:07:02:f8:fb:eb:8b:73:71:b4:0d:ee:ad:bc:
                    5d:ff:54:43:c4:be:ed:67:de:d2:1e:ed:8c:38:89:
                    f5:af:a8:b5:25:19:13:2c:f0:4b:ee:ca:80:01:04:
                    fa:26:90:58:21:1a:f7:c6:56:d8:0f:89:c0:ca:31:
                    f8:fd:50:03:d4:c5:c6:2e:ed:54:1e:ea:fd:8a:bf:
                    e0:60:f6:c4:bb:b5:a4:4d:af:35:4d:9c:61:51:c6:
                    14:dc:c6:0f:43:b3:3f:cd:5f:0d:f9:76:a6:ad:d1:
                    fc:59:e1:10:27:16:29:3f:41:c3:bd:0f:f1:77:f9:
                    29:68:db:0f:17:c6:84:a9:8e:43:0a:09:61:ff:25:
                    38:0e:9b:00:cd:7e:1d:8b:29:ef:5c:30:e8:7f:11:
                    49:9f:88:0c:94:1e:5d:10:c6:9b:44:41:76:80:7b:
                    a4:81:01:54:ba:33:d5:5d:1e:18:02:3e:23:0b:21:
                    30:ea:15:b6:7b:c2:2e:45:be:50:f1:35:38:10:a8:
                    32:42:cf:c5:28:93:64:8c:14:e4:30:e3:2d:ac:83:
                    5a:20:bc:c9:af:75:3d:5c:e5:9f:2d:8a:3b:f1:fb:
                    1a:1a:e8:e4:4b:b1:c3:dc:07:b1:ab:08:a5:e6:88:
                    99:e7
                Exponent: 65537 (0x10001)
        X509v3 extensions:
            X509v3 Basic Constraints: 
                CA:FALSE
            Netscape Cert Type: 
                SSL Client, S/MIME
            Netscape Comment: 
                OpenSSL Generated Client Certificate
            X509v3 Subject Key Identifier: 
                1B:A8:3B:5A:95:A3:92:EF:69:0E:D6:47:0E:59:AA:8E:5D:15:6B:E2
            X509v3 Authority Key Identifier: 
                keyid:55:0A:35:BE:0C:E8:A5:62:90:A6:23:67:01:81:7B:B6:E3:4E:A4:C8

            X509v3 Key Usage: critical
                Digital Signature, Non Repudiation, Key Encipherment
            X509v3 Extended Key Usage: 
                TLS Web Client Authentication, E-mail Protection
    Signature Algorithm: sha256WithRSAEncryption
         0d:98:f7:8a:d7:ef:6b:53:16:eb:be:e0:4a:a5:60:bd:9c:df:
         c2:4c:4d:59:14:10:bc:ab:f2:2c:e9:76:f9:11:a2:3a:d3:e3:
         ff:b8:2e:fb:29:96:7f:af:f3:a9:7f:c7:e3:ff:ac:9c:00:6a:
         87:16:9e:46:24:f3:0a:b6:26:44:3d:3e:62:fd:54:d3:d9:d0:
         e6:db:5d:9f:cf:72:7f:49:e1:86:ba:c1:39:ad:96:c4:6d:c2:
         34:c3:41:d3:09:9b:19:10:30:6e:7a:8c:0c:86:36:72:46:15:
         e9:99:30:88:6d:f3:8c:a8:01:ba:8e:ef:c4:c8:25:e6:40:9e:
         06:f3:3d:78:b6:d1:6f:b7:d0:0c:58:54:e7:7e:3c:0f:72:cb:
         8b:71:4d:70:97:51:5d:b1:e6:86:f6:41:36:13:dd:f6:ea:9a:
         05:02:d6:d5:b2:85:c7:47:6d:73:a8:c8:5f:fe:2e:eb:1c:20:
         01:bc:b0:1c:ff:66:f9:d8:68:76:84:01:a4:44:5e:53:4f:ec:
         80:e6:67:f7:fe:8d:18:ad:07:2d:3a:d2:fe:42:3f:58:8b:d5:
         d0:d9:e9:4b:29:15:b3:d3:6e:6f:dd:f9:0a:ab:9f:be:c9:72:
         0f:f9:f6:9c:a9:46:a8:7d:93:93:4b:f4:4a:17:b5:67:f4:4b:
         41:d3:ef:a3
-----BEGIN CERTIFICATE-----
MIID+jCCAuKgAwIBAgIBAzANBgkqhkiG9w0BAQsFADBRMQswCQYDVQQGEwJERTEU
MBIGA1UECgwLaGF3LWhhbWJ1cmcxEzARBgNVBAsMCmluZm9ybWF0aWsxFzAVBgNV
BAMMDkNBLWRpYW5hLXlhdnV6MB4XDTE2MTExMzE2NDIzMFoXDTE2MTIxMTE2NDIz
MFowaDELMAkGA1UEBhMCREUxFDASBgNVBAoMC2hhdy1oYW1idXJnMRMwEQYDVQQL
DAppbmZvcm1hdGlrMS4wLAYDVQQDDCVkaWFuYS15YXZ1ei5pbmZvcm1hdGlrLmhh
dy1oYW1idXJnLmRlMIIBIjANBgkqhkiG9w0BAQEFAAOCAQ8AMIIBCgKCAQEA5Bfw
U1U5fzSC4Pe8fQQ4uAcC+Pvri3NxtA3urbxd/1RDxL7tZ97SHu2MOIn1r6i1JRkT
LPBL7sqAAQT6JpBYIRr3xlbYD4nAyjH4/VAD1MXGLu1UHur9ir/gYPbEu7WkTa81
TZxhUcYU3MYPQ7M/zV8N+XamrdH8WeEQJxYpP0HDvQ/xd/kpaNsPF8aEqY5DCglh
/yU4DpsAzX4diynvXDDofxFJn4gMlB5dEMabREF2gHukgQFUujPVXR4YAj4jCyEw
6hW2e8IuRb5Q8TU4EKgyQs/FKJNkjBTkMOMtrINaILzJr3U9XOWfLYo78fsaGujk
S7HD3Aexqwil5oiZ5wIDAQABo4HFMIHCMAkGA1UdEwQCMAAwEQYJYIZIAYb4QgEB
BAQDAgWgMDMGCWCGSAGG+EIBDQQmFiRPcGVuU1NMIEdlbmVyYXRlZCBDbGllbnQg
Q2VydGlmaWNhdGUwHQYDVR0OBBYEFBuoO1qVo5LvaQ7WRw5Zqo5dFWviMB8GA1Ud
IwQYMBaAFFUKNb4M6KVikKYjZwGBe7bjTqTIMA4GA1UdDwEB/wQEAwIF4DAdBgNV
HSUEFjAUBggrBgEFBQcDAgYIKwYBBQUHAwQwDQYJKoZIhvcNAQELBQADggEBAA2Y
94rX72tTFuu+4EqlYL2c38JMTVkUELyr8izpdvkRojrT4/+4Lvspln+v86l/x+P/
rJwAaocWnkYk8wq2JkQ9PmL9VNPZ0ObbXZ/Pcn9J4Ya6wTmtlsRtwjTDQdMJmxkQ
MG56jAyGNnJGFemZMIht84yoAbqO78TIJeZAngbzPXi20W+30AxYVOd+PA9yy4tx
TXCXUV2x5ob2QTYT3fbqmgUC1tWyhcdHbXOoyF/+LuscIAG8sBz/ZvnYaHaEAaRE
XlNP7IDmZ/f+jRitBy060v5CP1iL1dDZ6UspFbPTbm/d+Qqrn77Jcg/59pypRqh9
k5NL9EoXtWf0S0HT76M=
-----END CERTIFICATE-----
