Certificate:
    Data:
        Version: 3 (0x2)
        Serial Number: 4 (0x4)
    Signature Algorithm: sha256WithRSAEncryption
        Issuer: C=DE, O=haw-hamburg, OU=informatik, CN=CA-diana-yavuz
        Validity
            Not Before: Nov 13 16:53:28 2016 GMT
            Not After : Dec 11 16:53:28 2016 GMT
        Subject: C=DE, O=haw-hamburg, OU=informatik, CN=diana-yavuz.informatik.haw-hamburg.de
        Subject Public Key Info:
            Public Key Algorithm: rsaEncryption
                Public-Key: (2048 bit)
                Modulus:
                    00:c3:f4:b9:45:11:f0:81:dd:52:00:c2:40:31:ee:
                    04:b1:0b:06:a1:f3:38:1a:b8:e9:df:33:18:46:0f:
                    0a:3f:1d:1b:04:27:15:ac:2d:c9:87:a6:65:e2:f5:
                    ff:9f:a9:ab:43:41:77:83:8f:52:c8:81:05:7b:7f:
                    a0:c3:44:4f:7b:1b:5a:2b:0a:fd:47:b5:53:61:b0:
                    63:b7:de:2c:2f:00:2d:96:e3:03:63:d5:d9:da:82:
                    aa:91:54:4f:a0:f7:1e:44:85:8d:a8:e9:2f:85:b9:
                    8c:8b:c6:f6:4a:b8:d2:14:7b:b6:2b:48:48:92:4e:
                    94:08:f5:a8:27:40:59:43:c3:21:7f:21:46:67:5e:
                    ed:bc:c1:41:51:b5:e3:b2:ce:68:fa:41:db:1f:1e:
                    c7:c3:ee:42:17:af:15:dd:67:5c:ef:3f:2a:ae:51:
                    32:de:f8:ba:e3:02:dc:e0:27:4b:ee:6a:1a:e0:5d:
                    ab:e8:06:1c:2b:0b:b0:b1:96:02:e5:c6:d4:68:5f:
                    69:46:d8:08:f5:a6:a6:3b:82:79:5d:d1:4f:99:c0:
                    ce:e1:96:b2:07:fe:6b:a1:87:36:8d:1d:f1:96:7a:
                    a8:15:d6:4f:ed:c6:03:5f:cc:b1:92:83:02:66:7a:
                    ed:72:9a:ea:e2:4c:b5:16:f3:74:4f:6a:f5:47:8c:
                    f7:73
                Exponent: 65537 (0x10001)
        X509v3 extensions:
            X509v3 Basic Constraints: 
                CA:FALSE
            Netscape Cert Type: 
                SSL Server
            Netscape Comment: 
                OpenSSL Generated Client Certificate
            X509v3 Subject Key Identifier: 
                F7:02:61:82:F0:16:E2:10:B1:80:0D:06:5A:03:BC:E3:25:28:BA:5A
            X509v3 Authority Key Identifier: 
                keyid:06:2E:72:C4:C3:38:1A:77:13:3B:7E:3F:AE:56:99:DB:A5:84:DC:C0

            X509v3 Key Usage: critical
                Digital Signature, Non Repudiation, Key Encipherment
            X509v3 Extended Key Usage: 
                TLS Web Client Authentication, E-mail Protection
    Signature Algorithm: sha256WithRSAEncryption
         20:f5:f0:64:88:ff:8f:37:d6:1a:43:2b:7a:8f:c0:74:0f:10:
         18:3a:79:a7:ed:68:33:39:74:ee:a7:9a:fd:dc:83:03:5a:38:
         16:0e:a4:5b:1d:b7:24:7d:31:64:6e:95:2e:f6:3f:00:d5:71:
         f6:91:31:72:4b:14:55:7a:d6:57:fa:5b:58:3a:9c:43:90:f1:
         52:68:c3:95:58:57:c3:ae:4e:35:05:61:8e:ae:0a:35:bc:12:
         72:b4:0c:8a:df:05:0c:9f:53:36:02:f5:a6:ec:30:84:2b:64:
         e1:e7:f4:6b:c4:03:72:08:48:19:d6:52:b3:76:6e:0e:57:df:
         e9:ad:76:a0:6e:ba:aa:c5:28:55:d2:80:12:26:d4:1a:1f:11:
         b8:63:eb:c3:71:ef:9f:f9:fe:e0:56:cd:10:c0:61:a9:10:ed:
         43:3f:78:79:8e:96:e6:1d:79:af:79:2d:4d:dc:e9:33:f3:38:
         79:f8:c7:5d:9c:29:58:7b:35:0a:30:1b:3a:a5:03:16:15:46:
         3b:34:b7:77:80:f4:c9:37:24:30:11:01:05:0c:8d:62:15:52:
         8c:e0:c3:cc:0b:68:c8:6e:87:5b:4e:9c:9e:10:81:b5:50:54:
         17:cd:32:46:96:29:74:d1:ff:59:d9:07:28:a7:3e:10:62:4d:
         4d:db:4c:b7
-----BEGIN CERTIFICATE-----
MIID+jCCAuKgAwIBAgIBBDANBgkqhkiG9w0BAQsFADBRMQswCQYDVQQGEwJERTEU
MBIGA1UECgwLaGF3LWhhbWJ1cmcxEzARBgNVBAsMCmluZm9ybWF0aWsxFzAVBgNV
BAMMDkNBLWRpYW5hLXlhdnV6MB4XDTE2MTExMzE2NTMyOFoXDTE2MTIxMTE2NTMy
OFowaDELMAkGA1UEBhMCREUxFDASBgNVBAoMC2hhdy1oYW1idXJnMRMwEQYDVQQL
DAppbmZvcm1hdGlrMS4wLAYDVQQDDCVkaWFuYS15YXZ1ei5pbmZvcm1hdGlrLmhh
dy1oYW1idXJnLmRlMIIBIjANBgkqhkiG9w0BAQEFAAOCAQ8AMIIBCgKCAQEAw/S5
RRHwgd1SAMJAMe4EsQsGofM4Grjp3zMYRg8KPx0bBCcVrC3Jh6Zl4vX/n6mrQ0F3
g49SyIEFe3+gw0RPextaKwr9R7VTYbBjt94sLwAtluMDY9XZ2oKqkVRPoPceRIWN
qOkvhbmMi8b2SrjSFHu2K0hIkk6UCPWoJ0BZQ8MhfyFGZ17tvMFBUbXjss5o+kHb
Hx7Hw+5CF68V3Wdc7z8qrlEy3vi64wLc4CdL7moa4F2r6AYcKwuwsZYC5cbUaF9p
RtgI9aamO4J5XdFPmcDO4ZayB/5roYc2jR3xlnqoFdZP7cYDX8yxkoMCZnrtcprq
4ky1FvN0T2r1R4z3cwIDAQABo4HFMIHCMAkGA1UdEwQCMAAwEQYJYIZIAYb4QgEB
BAQDAgZAMDMGCWCGSAGG+EIBDQQmFiRPcGVuU1NMIEdlbmVyYXRlZCBDbGllbnQg
Q2VydGlmaWNhdGUwHQYDVR0OBBYEFPcCYYLwFuIQsYANBloDvOMlKLpaMB8GA1Ud
IwQYMBaAFAYucsTDOBp3Ezt+P65WmdulhNzAMA4GA1UdDwEB/wQEAwIF4DAdBgNV
HSUEFjAUBggrBgEFBQcDAgYIKwYBBQUHAwQwDQYJKoZIhvcNAQELBQADggEBACD1
8GSI/4831hpDK3qPwHQPEBg6eaftaDM5dO6nmv3cgwNaOBYOpFsdtyR9MWRulS72
PwDVcfaRMXJLFFV61lf6W1g6nEOQ8VJow5VYV8OuTjUFYY6uCjW8EnK0DIrfBQyf
UzYC9absMIQrZOHn9GvEA3IISBnWUrN2bg5X3+mtdqBuuqrFKFXSgBIm1BofEbhj
68Nx75/5/uBWzRDAYakQ7UM/eHmOluYdea95LU3c6TPzOHn4x12cKVh7NQowGzql
AxYVRjs0t3eA9Mk3JDARAQUMjWIVUozgw8wLaMhuh1tOnJ4QgbVQVBfNMkaWKXTR
/1nZByinPhBiTU3bTLc=
-----END CERTIFICATE-----
