Certificate:
    Data:
        Version: 3 (0x2)
        Serial Number: 5 (0x5)
    Signature Algorithm: sha256WithRSAEncryption
        Issuer: C=DE, O=haw-hamburg, OU=informatik, CN=CA-diana-yavuz
        Validity
            Not Before: Nov 13 17:16:19 2016 GMT
            Not After : Dec 11 17:16:19 2016 GMT
        Subject: C=DE, O=haw-hamburg, OU=informatik, CN=diana-yavuz.informatik.haw-hamburg.de
        Subject Public Key Info:
            Public Key Algorithm: rsaEncryption
                Public-Key: (2048 bit)
                Modulus:
                    00:be:91:bc:21:c9:4a:88:03:29:fc:cf:7e:ba:99:
                    1e:10:03:3f:44:44:89:6c:42:52:39:07:ea:96:1b:
                    04:91:ae:86:3a:42:7e:62:32:0d:ea:06:ac:a2:9a:
                    b2:63:c9:39:3c:ac:86:ad:8a:40:51:a4:52:8b:b8:
                    74:42:c7:e2:d8:7c:89:a2:11:d1:e0:f2:df:c7:02:
                    71:bb:ec:9b:52:2a:f2:77:cf:fd:52:b0:31:bc:11:
                    37:f9:26:bc:a5:7b:1b:75:1a:a5:6a:24:ec:1a:5e:
                    93:81:7c:c4:28:68:d4:a0:51:45:15:21:f1:b8:c9:
                    9f:f1:2c:e2:1c:7b:be:64:a3:a1:e0:66:4d:63:5c:
                    f3:f2:c4:ca:d6:1e:98:84:1f:4c:6e:91:09:e4:4f:
                    c3:48:a7:f1:c1:7b:54:5b:c8:d1:82:38:32:72:f8:
                    93:44:49:6c:7c:54:2c:d6:ba:70:b0:db:0f:d2:87:
                    28:78:83:4b:5d:31:0f:20:01:0a:a8:6f:37:03:7c:
                    dc:ce:c7:d7:78:4f:23:e8:e6:50:a4:37:27:17:a1:
                    5f:65:95:51:2a:a3:a1:8d:01:1f:3f:f0:b5:af:b8:
                    07:77:75:59:26:7c:91:e5:fc:ce:80:27:e0:fe:78:
                    65:ec:8e:07:e1:84:8e:ce:7b:0f:9f:fc:f5:42:5c:
                    d7:09
                Exponent: 65537 (0x10001)
        X509v3 extensions:
            X509v3 Basic Constraints: 
                CA:FALSE
            Netscape Cert Type: 
                SSL Server
            Netscape Comment: 
                OpenSSL Generated Server Certificate
            X509v3 Subject Key Identifier: 
                B1:CF:6C:50:67:93:18:AA:FA:A1:AC:6D:8E:39:12:5A:BB:6D:1E:56
            X509v3 Authority Key Identifier: 
                keyid:50:6E:47:20:0B:B3:3A:82:34:58:17:80:AC:20:58:BB:E3:A9:AF:DF

    Signature Algorithm: sha256WithRSAEncryption
         6d:0c:7c:bb:3d:c2:79:36:8c:30:28:b3:0d:1f:62:d0:00:c6:
         08:57:bf:18:70:cd:a0:70:43:a1:ec:7a:c7:81:32:b9:0e:94:
         53:b4:bc:7b:00:63:b1:77:b2:80:41:bb:49:81:f0:a2:05:71:
         d4:c3:25:82:35:1f:1b:6d:ca:b1:74:58:0f:d8:48:87:40:b3:
         c9:5d:12:c0:19:15:a7:86:2c:60:9a:17:d9:ee:c8:a3:33:fc:
         49:90:1e:7d:bb:92:95:0c:8d:0c:af:b8:89:4f:12:f9:a2:a6:
         ed:7a:a6:24:df:bc:bd:43:9b:c2:88:25:11:0f:76:fe:08:64:
         36:d1:e7:3a:5c:13:4f:e2:d4:0d:ed:c3:8d:0c:03:b7:51:36:
         48:e8:e5:bf:24:5b:14:16:8d:51:8f:0e:28:24:86:4e:e5:7d:
         cf:5d:7b:a7:83:67:ec:3d:17:a2:03:ed:7e:d4:68:6f:a4:dc:
         dd:d6:90:6d:3e:fa:96:ad:ea:a6:7a:ae:55:b5:af:67:0a:74:
         96:6b:87:00:29:04:3b:6b:c9:f2:b1:ea:26:28:cc:62:c4:ac:
         a7:75:95:51:69:87:2a:8c:d2:12:28:8a:3c:f9:87:00:0f:40:
         25:d9:0e:07:8c:79:be:19:d4:cd:cf:f7:7a:8e:c8:b5:19:d2:
         e7:16:b3:aa
-----BEGIN CERTIFICATE-----
MIIDyzCCArOgAwIBAgIBBTANBgkqhkiG9w0BAQsFADBRMQswCQYDVQQGEwJERTEU
MBIGA1UECgwLaGF3LWhhbWJ1cmcxEzARBgNVBAsMCmluZm9ybWF0aWsxFzAVBgNV
BAMMDkNBLWRpYW5hLXlhdnV6MB4XDTE2MTExMzE3MTYxOVoXDTE2MTIxMTE3MTYx
OVowaDELMAkGA1UEBhMCREUxFDASBgNVBAoMC2hhdy1oYW1idXJnMRMwEQYDVQQL
DAppbmZvcm1hdGlrMS4wLAYDVQQDDCVkaWFuYS15YXZ1ei5pbmZvcm1hdGlrLmhh
dy1oYW1idXJnLmRlMIIBIjANBgkqhkiG9w0BAQEFAAOCAQ8AMIIBCgKCAQEAvpG8
IclKiAMp/M9+upkeEAM/RESJbEJSOQfqlhsEka6GOkJ+YjIN6gasopqyY8k5PKyG
rYpAUaRSi7h0Qsfi2HyJohHR4PLfxwJxu+ybUiryd8/9UrAxvBE3+Sa8pXsbdRql
aiTsGl6TgXzEKGjUoFFFFSHxuMmf8SziHHu+ZKOh4GZNY1zz8sTK1h6YhB9MbpEJ
5E/DSKfxwXtUW8jRgjgycviTRElsfFQs1rpwsNsP0ocoeINLXTEPIAEKqG83A3zc
zsfXeE8j6OZQpDcnF6FfZZVRKqOhjQEfP/C1r7gHd3VZJnyR5fzOgCfg/nhl7I4H
4YSOznsPn/z1QlzXCQIDAQABo4GWMIGTMAkGA1UdEwQCMAAwEQYJYIZIAYb4QgEB
BAQDAgZAMDMGCWCGSAGG+EIBDQQmFiRPcGVuU1NMIEdlbmVyYXRlZCBTZXJ2ZXIg
Q2VydGlmaWNhdGUwHQYDVR0OBBYEFLHPbFBnkxiq+qGsbY45Elq7bR5WMB8GA1Ud
IwQYMBaAFFBuRyALszqCNFgXgKwgWLvjqa/fMA0GCSqGSIb3DQEBCwUAA4IBAQBt
DHy7PcJ5NowwKLMNH2LQAMYIV78YcM2gcEOh7HrHgTK5DpRTtLx7AGOxd7KAQbtJ
gfCiBXHUwyWCNR8bbcqxdFgP2EiHQLPJXRLAGRWnhixgmhfZ7sijM/xJkB59u5KV
DI0Mr7iJTxL5oqbteqYk37y9Q5vCiCURD3b+CGQ20ec6XBNP4tQN7cONDAO3UTZI
6OW/JFsUFo1Rjw4oJIZO5X3PXXung2fsPReiA+1+1GhvpNzd1pBtPvqWreqmeq5V
ta9nCnSWa4cAKQQ7a8nyseomKMxixKyndZVRaYcqjNISKIo8+YcAD0Al2Q4HjHm+
GdTNz/d6jsi1GdLnFrOq
-----END CERTIFICATE-----
