Certificate:
    Data:
        Version: 3 (0x2)
        Serial Number: 6 (0x6)
    Signature Algorithm: sha256WithRSAEncryption
        Issuer: C=DE, O=haw-hamburg, OU=informatik, CN=CA-diana-yavuz
        Validity
            Not Before: Nov 13 17:17:53 2016 GMT
            Not After : Dec 11 17:17:53 2016 GMT
        Subject: C=DE, O=haw-hamburg, OU=informatik, CN=diana-yavuz.informatik.haw-hamburg.de
        Subject Public Key Info:
            Public Key Algorithm: rsaEncryption
                Public-Key: (2048 bit)
                Modulus:
                    00:df:77:5f:6b:c8:5e:08:38:dc:8e:06:ac:f9:1d:
                    2f:65:42:1b:25:c1:8c:96:d5:ae:36:b3:a8:67:14:
                    0a:d7:37:7f:f3:54:e7:82:24:4b:73:b6:57:c1:b1:
                    f1:2e:0b:52:05:4a:c1:71:c1:cc:ce:96:fd:7f:f5:
                    d9:78:4b:e6:82:d2:e8:64:2d:03:45:71:7c:d1:4f:
                    35:01:a4:bb:d0:87:74:93:84:da:90:3a:68:ca:aa:
                    4f:41:d9:98:28:52:6c:e3:5f:d2:82:1d:1b:dd:74:
                    b3:29:71:5d:7f:88:37:e2:ab:1f:58:d5:15:85:3f:
                    28:a4:c9:97:47:1c:71:1e:6f:51:ed:a7:50:3a:cb:
                    6b:a0:1c:51:49:3a:b6:9f:bd:be:7f:80:1d:3b:4a:
                    b6:a1:f5:b2:ba:c4:0a:ba:75:44:ba:64:fb:52:cb:
                    6a:28:80:42:49:cc:f1:4e:2e:46:c5:4e:9d:42:60:
                    3b:95:b4:0c:35:33:d9:6b:6e:2c:59:95:f0:7e:4f:
                    2a:5a:82:fa:4b:83:ad:eb:ef:c5:3e:b0:d8:44:51:
                    90:d0:da:7f:c7:60:d7:e9:ad:35:50:48:af:97:34:
                    36:d6:25:b3:d3:26:df:78:8d:89:72:f9:35:c8:50:
                    ad:86:92:6a:80:87:ed:ad:32:ba:4c:aa:3a:33:da:
                    07:4f
                Exponent: 65537 (0x10001)
        X509v3 extensions:
            X509v3 Basic Constraints: 
                CA:FALSE
            Netscape Cert Type: 
                SSL Server
            Netscape Comment: 
                OpenSSL Generated Server Certificate
            X509v3 Subject Key Identifier: 
                DA:58:B8:40:F2:90:DF:E0:AF:BE:3D:71:47:EF:B7:B3:82:52:94:EA
            X509v3 Authority Key Identifier: 
                keyid:50:6E:47:20:0B:B3:3A:82:34:58:17:80:AC:20:58:BB:E3:A9:AF:DF

            X509v3 Key Usage: 
                Digital Signature, Non Repudiation
    Signature Algorithm: sha256WithRSAEncryption
         87:83:0b:84:f3:c1:81:6f:47:01:46:73:d6:e6:e7:94:25:d5:
         50:fd:8b:7c:e8:30:64:24:97:be:db:21:b1:b7:05:c3:1c:cb:
         3f:92:7d:82:47:1a:51:be:fd:6d:8f:ae:60:eb:4d:ee:5e:74:
         dd:ea:01:0b:77:1a:e4:b4:f4:bb:68:22:8c:5c:9c:62:9a:71:
         30:fa:15:a6:d6:65:e6:16:c4:03:0e:88:87:ca:7d:3d:74:65:
         ed:cc:cb:59:e7:88:39:59:2e:a6:c5:e9:15:dc:ed:39:67:1f:
         38:f2:7d:0f:52:37:51:a0:ff:61:2e:e6:34:4f:aa:ab:1d:91:
         55:6a:db:1c:a7:c8:ea:15:dc:78:fa:01:56:51:bc:6b:ee:a2:
         0d:32:fb:0e:2c:06:55:67:bd:85:d7:96:92:7b:9d:a4:61:6e:
         7b:19:94:f1:43:cd:6e:1c:ff:e5:86:da:a8:6d:1b:a6:e0:b2:
         e2:99:5a:30:3d:81:e0:8d:5f:fe:45:62:44:57:5f:e2:cb:e1:
         83:5f:9c:19:57:35:7a:aa:07:81:43:b0:64:ee:e5:40:85:be:
         68:00:f3:9d:ee:3f:d3:a3:42:f2:90:06:8c:7c:cb:df:ae:fd:
         d0:11:88:6b:a8:0e:70:93:f3:1c:5e:36:41:cb:af:ce:24:4f:
         5c:bc:83:6e
-----BEGIN CERTIFICATE-----
MIID2DCCAsCgAwIBAgIBBjANBgkqhkiG9w0BAQsFADBRMQswCQYDVQQGEwJERTEU
MBIGA1UECgwLaGF3LWhhbWJ1cmcxEzARBgNVBAsMCmluZm9ybWF0aWsxFzAVBgNV
BAMMDkNBLWRpYW5hLXlhdnV6MB4XDTE2MTExMzE3MTc1M1oXDTE2MTIxMTE3MTc1
M1owaDELMAkGA1UEBhMCREUxFDASBgNVBAoMC2hhdy1oYW1idXJnMRMwEQYDVQQL
DAppbmZvcm1hdGlrMS4wLAYDVQQDDCVkaWFuYS15YXZ1ei5pbmZvcm1hdGlrLmhh
dy1oYW1idXJnLmRlMIIBIjANBgkqhkiG9w0BAQEFAAOCAQ8AMIIBCgKCAQEA33df
a8heCDjcjgas+R0vZUIbJcGMltWuNrOoZxQK1zd/81TngiRLc7ZXwbHxLgtSBUrB
ccHMzpb9f/XZeEvmgtLoZC0DRXF80U81AaS70Id0k4TakDpoyqpPQdmYKFJs41/S
gh0b3XSzKXFdf4g34qsfWNUVhT8opMmXRxxxHm9R7adQOstroBxRSTq2n72+f4Ad
O0q2ofWyusQKunVEumT7UstqKIBCSczxTi5GxU6dQmA7lbQMNTPZa24sWZXwfk8q
WoL6S4Ot6+/FPrDYRFGQ0Np/x2DX6a01UEivlzQ21iWz0ybfeI2Jcvk1yFCthpJq
gIftrTK6TKo6M9oHTwIDAQABo4GjMIGgMAkGA1UdEwQCMAAwEQYJYIZIAYb4QgEB
BAQDAgZAMDMGCWCGSAGG+EIBDQQmFiRPcGVuU1NMIEdlbmVyYXRlZCBTZXJ2ZXIg
Q2VydGlmaWNhdGUwHQYDVR0OBBYEFNpYuEDykN/gr749cUfvt7OCUpTqMB8GA1Ud
IwQYMBaAFFBuRyALszqCNFgXgKwgWLvjqa/fMAsGA1UdDwQEAwIGwDANBgkqhkiG
9w0BAQsFAAOCAQEAh4MLhPPBgW9HAUZz1ubnlCXVUP2LfOgwZCSXvtshsbcFwxzL
P5J9gkcaUb79bY+uYOtN7l503eoBC3ca5LT0u2gijFycYppxMPoVptZl5hbEAw6I
h8p9PXRl7czLWeeIOVkupsXpFdztOWcfOPJ9D1I3UaD/YS7mNE+qqx2RVWrbHKfI
6hXcePoBVlG8a+6iDTL7DiwGVWe9hdeWknudpGFuexmU8UPNbhz/5YbaqG0bpuCy
4plaMD2B4I1f/kViRFdf4svhg1+cGVc1eqoHgUOwZO7lQIW+aADzne4/06NC8pAG
jHzL36790BGIa6gOcJPzHF42QcuvziRPXLyDbg==
-----END CERTIFICATE-----
