Certificate:
    Data:
        Version: 3 (0x2)
        Serial Number: 7 (0x7)
    Signature Algorithm: sha256WithRSAEncryption
        Issuer: C=DE, O=haw-hamburg, OU=informatik, CN=CA-diana-yavuz
        Validity
            Not Before: Nov 13 17:19:51 2016 GMT
            Not After : Dec 11 17:19:51 2016 GMT
        Subject: C=DE, O=haw-hamburg, OU=informatik, CN=diana-yavuz.informatik.haw-hamburg.de
        Subject Public Key Info:
            Public Key Algorithm: rsaEncryption
                Public-Key: (2048 bit)
                Modulus:
                    00:b8:82:a8:b2:7d:0f:b6:d6:a1:20:e1:94:09:ec:
                    f7:b9:13:02:17:c0:57:7d:a7:b5:bd:42:ad:89:9c:
                    6d:be:56:75:d7:07:fb:89:39:c2:fd:e9:6a:e9:c0:
                    4b:1e:ea:25:c7:6d:b7:b5:1f:bd:9c:8d:ea:11:20:
                    2b:31:37:94:20:12:91:c6:e2:5a:97:7c:fb:a5:22:
                    7f:c7:ba:fa:d4:4f:c9:77:b3:bf:95:07:63:2c:f9:
                    3a:63:ee:20:a4:13:bf:c2:df:4f:09:6c:1a:b4:12:
                    18:ae:83:13:14:08:b0:72:9c:d1:10:36:f9:5b:57:
                    96:c0:99:03:18:41:55:02:c6:44:cb:dd:a0:f4:3b:
                    df:e6:a5:9b:ce:39:82:cd:9b:81:e1:dd:00:dc:68:
                    fd:e0:ee:5e:1e:e1:e1:29:8b:f9:0d:2b:b4:57:8e:
                    27:e8:44:1d:5e:45:7e:11:bf:6e:37:51:c0:ed:ee:
                    6e:d9:3c:f4:09:70:73:0e:c7:26:9a:67:e1:e0:e3:
                    17:78:87:61:63:4e:dd:51:58:2b:3f:7a:5b:75:9c:
                    1c:00:71:86:21:b0:ef:1a:3f:c6:91:19:b2:be:04:
                    d5:a6:2f:27:02:a0:60:99:04:cc:6e:78:26:4e:d8:
                    5f:7f:59:d4:11:53:38:74:e8:3b:04:b2:ec:ba:89:
                    2d:8b
                Exponent: 65537 (0x10001)
        X509v3 extensions:
            X509v3 Basic Constraints: 
                CA:FALSE
            Netscape Cert Type: 
                SSL Server
            Netscape Comment: 
                OpenSSL Generated Server Certificate
            X509v3 Subject Key Identifier: 
                FE:29:55:18:72:1C:83:06:51:E4:BD:68:53:B1:CB:22:DD:B8:14:C9
            X509v3 Authority Key Identifier: 
                keyid:BD:D8:24:C7:FD:DE:53:0B:21:AD:32:FE:58:52:6F:BA:9F:95:27:C2

            X509v3 Key Usage: 
                Digital Signature, Non Repudiation
    Signature Algorithm: sha256WithRSAEncryption
         34:82:e7:02:04:20:0d:be:cd:41:ad:7b:9c:16:6d:93:f1:f6:
         7f:3b:61:e8:ee:6f:76:92:ff:d1:61:00:9b:97:f4:02:55:95:
         7d:bc:36:ae:67:f2:2c:96:17:93:dc:1f:07:25:ac:30:76:20:
         1b:ef:ba:73:53:4a:cf:28:2d:cf:89:97:59:f9:96:99:93:8e:
         70:c8:db:15:66:5e:a0:7e:44:7c:3f:d5:4b:4a:ad:18:73:ed:
         06:d4:32:a5:6a:5f:9a:d8:09:01:0a:a0:e2:97:f4:26:49:38:
         cf:d1:39:bf:ea:63:a1:66:93:2b:c3:ae:d9:c1:89:bd:e0:1e:
         2c:18:47:6d:29:1f:7a:dc:b6:2e:08:cc:2e:ca:4f:aa:3d:88:
         5b:22:f7:6f:a3:cc:f1:53:c9:66:15:39:59:0b:a3:a9:ea:4d:
         a2:9a:52:70:d1:7f:7b:90:ba:5f:d2:07:bc:51:92:63:e4:84:
         7a:e0:57:d5:65:90:71:9a:63:c8:35:7c:ff:97:7e:00:85:8f:
         95:24:6b:de:0c:2a:96:93:be:e6:60:b2:c3:88:d2:a4:27:e6:
         c5:35:3c:95:bf:2d:af:36:d1:fd:2f:11:d7:03:5d:ab:d4:3b:
         f5:7c:58:b1:97:4f:89:2f:82:65:52:97:af:f1:61:2c:17:5b:
         dd:74:91:3b
-----BEGIN CERTIFICATE-----
MIID2DCCAsCgAwIBAgIBBzANBgkqhkiG9w0BAQsFADBRMQswCQYDVQQGEwJERTEU
MBIGA1UECgwLaGF3LWhhbWJ1cmcxEzARBgNVBAsMCmluZm9ybWF0aWsxFzAVBgNV
BAMMDkNBLWRpYW5hLXlhdnV6MB4XDTE2MTExMzE3MTk1MVoXDTE2MTIxMTE3MTk1
MVowaDELMAkGA1UEBhMCREUxFDASBgNVBAoMC2hhdy1oYW1idXJnMRMwEQYDVQQL
DAppbmZvcm1hdGlrMS4wLAYDVQQDDCVkaWFuYS15YXZ1ei5pbmZvcm1hdGlrLmhh
dy1oYW1idXJnLmRlMIIBIjANBgkqhkiG9w0BAQEFAAOCAQ8AMIIBCgKCAQEAuIKo
sn0PttahIOGUCez3uRMCF8BXfae1vUKtiZxtvlZ11wf7iTnC/elq6cBLHuolx223
tR+9nI3qESArMTeUIBKRxuJal3z7pSJ/x7r61E/Jd7O/lQdjLPk6Y+4gpBO/wt9P
CWwatBIYroMTFAiwcpzREDb5W1eWwJkDGEFVAsZEy92g9Dvf5qWbzjmCzZuB4d0A
3Gj94O5eHuHhKYv5DSu0V44n6EQdXkV+Eb9uN1HA7e5u2Tz0CXBzDscmmmfh4OMX
eIdhY07dUVgrP3pbdZwcAHGGIbDvGj/GkRmyvgTVpi8nAqBgmQTMbngmTthff1nU
EVM4dOg7BLLsuoktiwIDAQABo4GjMIGgMAkGA1UdEwQCMAAwEQYJYIZIAYb4QgEB
BAQDAgZAMDMGCWCGSAGG+EIBDQQmFiRPcGVuU1NMIEdlbmVyYXRlZCBTZXJ2ZXIg
Q2VydGlmaWNhdGUwHQYDVR0OBBYEFP4pVRhyHIMGUeS9aFOxyyLduBTJMB8GA1Ud
IwQYMBaAFL3YJMf93lMLIa0y/lhSb7qflSfCMAsGA1UdDwQEAwIGwDANBgkqhkiG
9w0BAQsFAAOCAQEANILnAgQgDb7NQa17nBZtk/H2fzth6O5vdpL/0WEAm5f0AlWV
fbw2rmfyLJYXk9wfByWsMHYgG++6c1NKzygtz4mXWfmWmZOOcMjbFWZeoH5EfD/V
S0qtGHPtBtQypWpfmtgJAQqg4pf0Jkk4z9E5v+pjoWaTK8Ou2cGJveAeLBhHbSkf
ety2LgjMLspPqj2IWyL3b6PM8VPJZhU5WQujqepNoppScNF/e5C6X9IHvFGSY+SE
euBX1WWQcZpjyDV8/5d+AIWPlSRr3gwqlpO+5mCyw4jSpCfmxTU8lb8trzbR/S8R
1wNdq9Q79XxYsZdPiS+CZVKXr/FhLBdb3XSROw==
-----END CERTIFICATE-----
