Certificate:
    Data:
        Version: 3 (0x2)
        Serial Number: 1 (0x1)
    Signature Algorithm: sha256WithRSAEncryption
        Issuer: C=DE, O=haw-hamburg, OU=informatik, CN=CA-diana-yavuz
        Validity
            Not Before: Nov  7 20:47:44 2016 GMT
            Not After : Dec  5 20:47:44 2016 GMT
        Subject: C=DE, O=haw-hamburg, OU=informatik, CN=diana-yavuz.informatik.haw-hamburg.de
        Subject Public Key Info:
            Public Key Algorithm: rsaEncryption
                Public-Key: (2048 bit)
                Modulus:
                    00:c2:b2:0e:50:19:ee:3b:ce:e8:cd:4d:df:38:b6:
                    6c:05:bd:ca:19:b5:d6:be:4f:f9:9e:b2:fd:70:51:
                    48:d5:df:d1:00:0e:94:3a:8a:8d:00:3b:42:62:56:
                    db:29:dc:ff:ba:71:bf:76:50:52:87:90:7f:b4:61:
                    5e:b8:e4:8f:f2:ff:6f:0c:7f:f2:8b:36:75:22:31:
                    9c:02:66:a0:88:a4:18:a6:fd:a6:7f:e0:15:d1:f7:
                    a4:90:8c:2e:a9:33:53:8a:78:d2:41:5e:03:df:3f:
                    e9:3e:6c:50:6b:22:1a:b4:c6:f4:1e:83:f1:46:a2:
                    59:00:f1:8d:2a:ee:71:99:54:73:0a:42:d9:1d:c8:
                    5f:c0:57:87:16:1f:84:61:34:b8:70:0d:32:82:ba:
                    e1:4c:5d:33:17:13:c6:3b:15:11:77:79:8b:4d:ee:
                    dc:96:41:06:c4:f1:c5:5a:2d:82:3d:b6:9a:fc:c3:
                    24:71:7e:4e:87:3c:96:0c:36:f3:d0:31:34:49:60:
                    8e:29:9f:1b:c9:9b:df:08:ef:e7:65:dc:44:7e:2d:
                    68:87:7e:26:c3:07:8b:4b:4b:aa:11:78:14:20:70:
                    22:3e:de:04:9d:20:d3:60:2c:21:0d:7c:5e:55:09:
                    cd:ba:e6:3f:20:dd:7f:a9:39:0b:91:c8:08:6d:43:
                    09:4d
                Exponent: 65537 (0x10001)
        X509v3 extensions:
            X509v3 Basic Constraints: 
                CA:TRUE
            X509v3 Subject Key Identifier: 
                7F:7C:AB:28:94:90:62:74:18:43:32:EE:35:A4:68:45:CA:4C:2F:C5
            X509v3 Authority Key Identifier: 
                keyid:E9:CD:C3:E8:1E:7D:61:BF:12:3D:52:42:BE:3B:1B:15:00:F9:0F:28

    Signature Algorithm: sha256WithRSAEncryption
         9b:9e:2d:dd:cd:db:09:d7:f7:a6:35:da:b2:bf:fe:3b:b4:f2:
         2d:13:88:2f:72:5d:21:cb:99:f1:9b:b5:0b:0c:23:b5:93:c6:
         11:f1:a0:06:5c:94:ff:b4:2f:07:aa:77:fa:61:08:f8:3b:56:
         3d:34:3c:b6:96:a5:67:88:6b:ae:9b:ab:bc:9e:68:13:aa:c3:
         9e:0c:28:e3:a8:29:59:11:10:b4:70:97:0a:d4:4d:e3:8b:e4:
         9b:31:9b:6e:3c:83:05:73:e5:f1:8d:bb:d4:e3:92:aa:4f:59:
         cb:72:6c:f5:e2:b0:f9:2f:d4:03:0a:a6:33:93:35:76:21:88:
         0e:85:ca:a2:e0:e7:3f:40:70:0f:5f:d1:7f:4d:35:4b:7d:fb:
         95:e4:6c:94:2e:db:eb:4b:25:c7:3c:88:c9:ce:3d:97:7c:1f:
         3c:35:b3:de:eb:ce:01:86:9f:ff:96:af:ba:0a:fd:22:03:ba:
         0a:08:b3:a4:1a:f8:00:eb:f5:37:70:df:58:7e:9a:e9:11:30:
         74:1d:d3:fd:9f:6f:b0:e8:e4:35:7a:75:9b:db:7c:15:24:be:
         86:cb:fd:53:24:a9:6e:4d:c8:a4:37:f1:47:c0:62:ac:11:52:
         18:5f:8c:be:f8:7e:7b:a7:d8:94:5e:2b:4b:7c:dd:aa:02:27:
         78:8a:ec:32
-----BEGIN CERTIFICATE-----
MIIDhDCCAmygAwIBAgIBATANBgkqhkiG9w0BAQsFADBRMQswCQYDVQQGEwJERTEU
MBIGA1UECgwLaGF3LWhhbWJ1cmcxEzARBgNVBAsMCmluZm9ybWF0aWsxFzAVBgNV
BAMMDkNBLWRpYW5hLXlhdnV6MB4XDTE2MTEwNzIwNDc0NFoXDTE2MTIwNTIwNDc0
NFowaDELMAkGA1UEBhMCREUxFDASBgNVBAoMC2hhdy1oYW1idXJnMRMwEQYDVQQL
DAppbmZvcm1hdGlrMS4wLAYDVQQDDCVkaWFuYS15YXZ1ei5pbmZvcm1hdGlrLmhh
dy1oYW1idXJnLmRlMIIBIjANBgkqhkiG9w0BAQEFAAOCAQ8AMIIBCgKCAQEAwrIO
UBnuO87ozU3fOLZsBb3KGbXWvk/5nrL9cFFI1d/RAA6UOoqNADtCYlbbKdz/unG/
dlBSh5B/tGFeuOSP8v9vDH/yizZ1IjGcAmagiKQYpv2mf+AV0fekkIwuqTNTinjS
QV4D3z/pPmxQayIatMb0HoPxRqJZAPGNKu5xmVRzCkLZHchfwFeHFh+EYTS4cA0y
grrhTF0zFxPGOxURd3mLTe7clkEGxPHFWi2CPbaa/MMkcX5OhzyWDDbz0DE0SWCO
KZ8byZvfCO/nZdxEfi1oh34mwweLS0uqEXgUIHAiPt4EnSDTYCwhDXxeVQnNuuY/
IN1/qTkLkcgIbUMJTQIDAQABo1AwTjAMBgNVHRMEBTADAQH/MB0GA1UdDgQWBBR/
fKsolJBidBhDMu41pGhFykwvxTAfBgNVHSMEGDAWgBTpzcPoHn1hvxI9UkK+OxsV
APkPKDANBgkqhkiG9w0BAQsFAAOCAQEAm54t3c3bCdf3pjXasr/+O7TyLROIL3Jd
IcuZ8Zu1CwwjtZPGEfGgBlyU/7QvB6p3+mEI+DtWPTQ8tpalZ4hrrpurvJ5oE6rD
ngwo46gpWREQtHCXCtRN44vkmzGbbjyDBXPl8Y271OOSqk9Zy3Js9eKw+S/UAwqm
M5M1diGIDoXKouDnP0BwD1/Rf001S337leRslC7b60slxzyIyc49l3wfPDWz3uvO
AYaf/5avugr9IgO6CgizpBr4AOv1N3DfWH6a6REwdB3T/Z9vsOjkNXp1m9t8FSS+
hsv9UySpbk3IpDfxR8BirBFSGF+Mvvh+e6fYlF4rS3zdqgIneIrsMg==
-----END CERTIFICATE-----
-----BEGIN X509 CRL-----
MIICFTCB/gIBATANBgkqhkiG9w0BAQsFADBRMQswCQYDVQQGEwJERTEUMBIGA1UE
CgwLaGF3LWhhbWJ1cmcxEzARBgNVBAsMCmluZm9ybWF0aWsxFzAVBgNVBAMMDkNB
LWRpYW5hLXlhdnV6Fw0xNjExMDcyMDQ3NDdaFw0xNjEyMDUyMDQ3NDdaoHkwdzB1
BgNVHSMEbjBsgBTpzcPoHn1hvxI9UkK+OxsVAPkPKKFJpEcwRTELMAkGA1UEBhMC
REUxEzARBgNVBAgMClNvbWUtU3RhdGUxFDASBgNVBAoMC2hhdy1oYW1idXJnMQsw
CQYDVQQDDAJDQYIJALrBZOga/8EeMA0GCSqGSIb3DQEBCwUAA4IBAQCRKZdiCX7L
MN81jJitHwMuNMhk3/nFiXAphO7Gfl6q7yd/91SZsTyG4W/2ROk+jjOWN3aNt+F8
vfKNNX/F9tQGO7hikqmrtx6Dshggb8bn+hWmgwsFfMJWFFkw4APn/YFNzUssBIW1
pGlsuIyZYIvEo908WqjRPTa3Z/vZpZWHV+stOimIZqg5TL9LSRmRmZFBMf6kpuVK
KbgD4w/uf2JYnTVzh/jSiEtnSfFAs9ItsJdy41X7StO+bnZxEL9v+SqaNrtiuXLL
g2gHch3TgSPgDDNrWweAGpIlWLXk0q/CGUJ/Mt3OoMOTSSE3m93wNL1pGnbEVtgH
I8HVPbRegABf
-----END X509 CRL-----
