Certificate:
    Data:
        Version: 3 (0x2)
        Serial Number: 9 (0x9)
    Signature Algorithm: sha256WithRSAEncryption
        Issuer: C=DE, O=haw-hamburg, OU=informatik, CN=CA-diana-yavuz
        Validity
            Not Before: Dec 12 20:52:58 2016 GMT
            Not After : Jan  9 20:52:58 2017 GMT
        Subject: C=DE, O=haw-hamburg, OU=informatik, CN=diana-yavuz.informatik.haw-hamburg.de
        Subject Public Key Info:
            Public Key Algorithm: rsaEncryption
                Public-Key: (2048 bit)
                Modulus:
                    00:a5:0d:45:90:63:d2:54:c2:f3:28:37:ae:6d:fd:
                    43:e2:28:33:6e:c8:e0:91:0f:2c:93:1c:f7:6a:f5:
                    13:d4:90:48:16:44:ef:89:09:df:39:01:2b:50:35:
                    cd:82:50:12:a7:3e:47:6e:d6:ad:77:7a:d9:dd:89:
                    4b:62:18:07:f2:fb:9f:a7:18:9a:27:ff:a1:d9:5c:
                    ba:6b:0e:6d:e4:48:10:12:73:27:eb:c7:1d:76:ff:
                    d1:ba:51:ca:c6:c3:7a:47:59:54:55:29:9a:48:45:
                    7c:4d:35:ae:4d:ee:42:20:a4:ea:12:1e:fd:65:48:
                    f8:9b:40:84:48:53:29:8a:f0:01:b6:41:b1:8e:e2:
                    15:7e:f3:3e:34:0c:19:c9:5f:bb:a7:01:c2:01:ea:
                    bb:d1:42:0a:6b:fd:c8:ba:c3:b2:61:28:6b:9d:81:
                    24:20:04:65:01:99:c4:d5:bb:eb:5f:a6:fe:ad:36:
                    ae:d5:c5:06:c8:d6:60:6c:ff:7a:79:8e:20:ba:75:
                    1d:59:42:72:3a:d0:e4:dd:06:16:5c:37:ef:93:f8:
                    aa:3f:75:45:b7:10:45:40:0a:28:79:6d:38:13:a8:
                    56:71:d8:00:77:a7:64:6d:ee:c2:d5:ad:c7:f4:22:
                    44:b0:69:48:b7:cd:91:6e:81:ac:37:cb:f0:52:0b:
                    a0:67
                Exponent: 65537 (0x10001)
        X509v3 extensions:
            X509v3 Basic Constraints: 
                CA:FALSE
            Netscape Cert Type: 
                SSL Server
            Netscape Comment: 
                OpenSSL Generated Server Certificate
            X509v3 Subject Key Identifier: 
                C7:B4:D5:EC:5F:AF:DA:EB:ED:4D:24:5E:2F:0F:A6:7F:A9:9A:B2:18
            X509v3 Authority Key Identifier: 
                keyid:4F:31:CE:DE:AE:0A:D5:17:E7:C2:23:9A:DA:29:3A:A1:9B:D3:C0:8F

            X509v3 Key Usage: 
                Digital Signature, Non Repudiation
    Signature Algorithm: sha256WithRSAEncryption
         31:29:1c:cf:74:52:36:f6:7b:36:80:d5:33:e3:4c:23:43:cd:
         fc:cb:19:f1:1e:07:9e:e7:26:23:d3:ab:4d:27:78:7a:5e:1f:
         bf:2b:f9:89:4b:0c:0a:fd:b5:71:82:71:3d:80:e1:64:fc:c0:
         de:b0:1d:94:a0:0c:d4:80:e9:c6:65:dd:4c:da:e2:a2:36:47:
         86:7d:d3:85:60:4a:0f:a5:88:8a:85:77:01:26:16:fb:3d:fb:
         99:5b:b2:1a:5a:ff:06:cc:f7:91:55:57:b9:63:11:ca:b0:e6:
         5a:b0:64:2b:bb:14:df:5b:20:69:51:dd:b2:3e:a6:68:4b:9f:
         7f:32:de:2d:e7:21:0f:4d:eb:25:0f:70:17:1a:fd:26:b1:55:
         d8:ff:16:31:c7:49:1b:56:99:7c:7d:8f:63:54:c7:c2:af:4f:
         30:e8:2a:3b:27:3d:6c:95:4f:6e:10:b6:a6:5e:27:5f:d9:7d:
         16:89:9b:54:a0:07:f9:4f:c8:ae:53:4f:cc:9a:8a:b8:d7:71:
         0e:5a:0e:bc:a2:87:b1:30:40:51:40:64:93:f9:e3:60:77:6e:
         75:ca:4d:7c:45:cb:d2:7a:5f:c5:46:1b:50:63:5a:0f:d8:9c:
         52:9d:10:a2:4a:93:8c:1f:8e:e0:9b:f4:92:56:7a:11:db:2d:
         2c:e2:1d:fc
-----BEGIN CERTIFICATE-----
MIID2DCCAsCgAwIBAgIBCTANBgkqhkiG9w0BAQsFADBRMQswCQYDVQQGEwJERTEU
MBIGA1UECgwLaGF3LWhhbWJ1cmcxEzARBgNVBAsMCmluZm9ybWF0aWsxFzAVBgNV
BAMMDkNBLWRpYW5hLXlhdnV6MB4XDTE2MTIxMjIwNTI1OFoXDTE3MDEwOTIwNTI1
OFowaDELMAkGA1UEBhMCREUxFDASBgNVBAoMC2hhdy1oYW1idXJnMRMwEQYDVQQL
DAppbmZvcm1hdGlrMS4wLAYDVQQDDCVkaWFuYS15YXZ1ei5pbmZvcm1hdGlrLmhh
dy1oYW1idXJnLmRlMIIBIjANBgkqhkiG9w0BAQEFAAOCAQ8AMIIBCgKCAQEApQ1F
kGPSVMLzKDeubf1D4igzbsjgkQ8skxz3avUT1JBIFkTviQnfOQErUDXNglASpz5H
btatd3rZ3YlLYhgH8vufpxiaJ/+h2Vy6aw5t5EgQEnMn68cddv/RulHKxsN6R1lU
VSmaSEV8TTWuTe5CIKTqEh79ZUj4m0CESFMpivABtkGxjuIVfvM+NAwZyV+7pwHC
Aeq70UIKa/3IusOyYShrnYEkIARlAZnE1bvrX6b+rTau1cUGyNZgbP96eY4gunUd
WUJyOtDk3QYWXDfvk/iqP3VFtxBFQAooeW04E6hWcdgAd6dkbe7C1a3H9CJEsGlI
t82RboGsN8vwUgugZwIDAQABo4GjMIGgMAkGA1UdEwQCMAAwEQYJYIZIAYb4QgEB
BAQDAgZAMDMGCWCGSAGG+EIBDQQmFiRPcGVuU1NMIEdlbmVyYXRlZCBTZXJ2ZXIg
Q2VydGlmaWNhdGUwHQYDVR0OBBYEFMe01exfr9rr7U0kXi8Ppn+pmrIYMB8GA1Ud
IwQYMBaAFE8xzt6uCtUX58IjmtopOqGb08CPMAsGA1UdDwQEAwIGwDANBgkqhkiG
9w0BAQsFAAOCAQEAMSkcz3RSNvZ7NoDVM+NMI0PN/MsZ8R4HnucmI9OrTSd4el4f
vyv5iUsMCv21cYJxPYDhZPzA3rAdlKAM1IDpxmXdTNriojZHhn3ThWBKD6WIioV3
ASYW+z37mVuyGlr/Bsz3kVVXuWMRyrDmWrBkK7sU31sgaVHdsj6maEuffzLeLech
D03rJQ9wFxr9JrFV2P8WMcdJG1aZfH2PY1THwq9PMOgqOyc9bJVPbhC2pl4nX9l9
FombVKAH+U/IrlNPzJqKuNdxDloOvKKHsTBAUUBkk/njYHdudcpNfEXL0npfxUYb
UGNaD9icUp0QokqTjB+O4Jv0klZ6EdstLOId/A==
-----END CERTIFICATE-----
-----BEGIN X509 CRL-----
MIIB+DCB4QIBATANBgkqhkiG9w0BAQsFADBRMQswCQYDVQQGEwJERTEUMBIGA1UE
CgwLaGF3LWhhbWJ1cmcxEzARBgNVBAsMCmluZm9ybWF0aWsxFzAVBgNVBAMMDkNB
LWRpYW5hLXlhdnV6Fw0xNjEyMTIyMDUzMDFaFw0xNzAxMDkyMDUzMDFaoFwwWjBY
BgNVHSMEUTBPgBRPMc7ergrVF+fCI5raKTqhm9PAj6E0pDIwMDELMAkGA1UEBhMC
REUxFDASBgNVBAoMC2hhdy1oYW1idXJnMQswCQYDVQQDDAJDQYIBATANBgkqhkiG
9w0BAQsFAAOCAQEAieScaQGmcRMLHLF3kQv4sGJxNBwH9QFOphr9gOU7kvpzevSL
jhajTbTR4nznW3v/WoaAAETgKy9b+OArNHq3KDCkUQCr/FHGtq4bGHFEohxsUHkD
uj8XYWsgNnPlPDme+0BrnuxR9xJyv7gUI/fno9B/0r+JN5m7RQEp5zsYb1jVeTKi
8O/NaoaDOzt2C8gIHoma8KNnaq0T2zA7X9JuA+ck1qiO0Wnw28032jVkB6uR7Y43
niYHGrDG+l4Jwk2pWp5ivr1mdRN8OsGIyW9O45SiVGIT+LxexTwmaF0KGqtuXo97
EQvHTQj1pRZJgZHzi8RM+YPSvkpn//O6ehTOwQ==
-----END X509 CRL-----
