Certificate:
    Data:
        Version: 3 (0x2)
        Serial Number: 1 (0x1)
    Signature Algorithm: sha256WithRSAEncryption
        Issuer: C=DE, O=haw-hamburg, CN=CA
        Validity
            Not Before: Nov 12 21:58:54 2016 GMT
            Not After : Dec 10 21:58:54 2016 GMT
        Subject: C=DE, O=haw-hamburg, OU=informatik, CN=CA-diana-yavuz
        Subject Public Key Info:
            Public Key Algorithm: rsaEncryption
                Public-Key: (2048 bit)
                Modulus:
                    00:c1:68:88:71:30:4e:f6:d2:85:b8:e7:df:b4:af:
                    cf:e5:12:4e:9e:69:aa:de:9a:ad:84:00:ed:bf:28:
                    32:0b:a7:1d:c6:44:00:e7:79:de:ff:70:f6:a5:a8:
                    64:24:a7:f8:5a:23:79:6e:62:a9:f4:28:81:ad:39:
                    36:f8:c7:30:1b:cb:3b:c7:a2:70:7c:c2:54:c7:02:
                    32:b3:94:49:da:2d:30:af:04:bc:e3:a3:98:bd:28:
                    dd:17:9d:d3:80:69:eb:3c:b8:1c:ed:34:58:0d:52:
                    32:b8:19:40:14:37:3a:20:25:d5:26:dc:11:c1:b0:
                    b4:aa:8e:86:3a:a7:9c:c2:ea:55:75:79:53:3a:1c:
                    26:a4:5b:30:02:cc:d7:2d:e4:76:c2:2f:a8:6f:58:
                    ff:2b:ef:12:30:a8:17:33:86:eb:49:2d:2d:e1:31:
                    48:d1:8e:46:f5:fc:8d:4b:42:95:14:29:71:6e:40:
                    12:8f:56:f2:c2:5f:7d:45:6e:fe:e8:fc:2e:13:ff:
                    8e:ca:61:d9:0a:a0:e9:f6:c2:07:5a:1f:f4:c7:26:
                    7c:6f:0f:9d:11:60:c0:c6:25:64:a8:3c:4f:de:30:
                    ae:59:17:df:d9:7f:d3:51:f0:14:cf:ef:eb:5a:99:
                    cf:9e:2a:33:29:02:a6:16:fc:4b:67:89:b0:7c:94:
                    f9:25
                Exponent: 65537 (0x10001)
        X509v3 extensions:
            X509v3 Basic Constraints: 
                CA:TRUE
            X509v3 Subject Key Identifier: 
                33:F9:9C:9F:75:BD:B2:9F:BA:86:E3:8B:94:1F:07:84:DF:6A:8A:FA
            X509v3 Authority Key Identifier: 
                keyid:EC:1B:59:3A:58:B4:39:F3:DB:C2:3C:27:9F:DC:3C:F1:8B:85:12:56

    Signature Algorithm: sha256WithRSAEncryption
         7d:98:54:6f:6a:e6:af:e6:eb:ef:b2:fb:ba:3c:db:aa:a6:c9:
         ca:a6:30:4f:5a:45:7f:1f:9c:ee:40:de:af:1d:69:9f:78:63:
         53:95:70:65:fa:50:d9:a1:95:f3:47:19:69:d0:b2:d8:4e:27:
         87:a5:e6:1b:dc:3f:74:48:be:28:cd:88:71:9d:aa:fd:09:50:
         88:37:7c:25:64:5b:68:1c:2e:96:f6:86:e3:1c:bc:d3:82:d6:
         b7:4a:df:df:65:c2:bd:41:44:1e:35:8d:73:b0:84:ad:78:ab:
         28:f8:8d:a8:0e:9c:d8:ed:11:2b:40:c2:25:06:7f:89:c3:62:
         f5:86:a6:2b:70:2c:93:52:ab:3c:43:97:c3:71:ec:00:0f:ae:
         8a:fc:dc:20:ab:a3:fe:da:40:14:cf:70:7f:15:28:5f:37:87:
         4f:13:2d:0d:12:5e:2e:c2:4e:39:de:9a:c5:b3:17:05:a8:b2:
         06:ff:b0:bd:e7:33:10:2b:a7:7e:e5:93:9f:54:22:d5:c2:72:
         e6:89:b7:ed:44:bf:56:fb:6c:ed:26:b4:58:b7:ac:6c:89:1e:
         10:d3:1d:b1:52:b1:d7:de:c7:0b:7b:aa:d4:cb:f7:88:60:51:
         84:ab:b0:f0:95:03:db:8d:4e:0e:ef:d8:b3:00:75:bf:8c:09:
         2a:42:d6:7b:5f:11:23:eb:1c:35:dd:0e:2e:de:c0:73:8d:36:
         6f:2a:b3:7b:d1:62:a0:39:d2:c3:21:63:ef:4a:9b:41:78:22:
         ad:99:b2:72:01:14:21:02:b9:9e:92:9d:e1:c1:7a:1d:32:7f:
         7a:9f:3f:3e:ac:cd:9e:5b:ae:9a:6b:f5:6e:85:cf:27:69:c4:
         a7:c0:fc:5a:b7:21:c9:13:01:0f:51:04:6d:1d:80:8d:8e:f0:
         62:7c:4f:a5:57:d9:fb:71:df:a8:42:6e:38:47:93:8e:4d:04:
         44:20:27:c7:a6:b8:2a:b9:4f:37:86:3c:1f:4f:1f:65:fe:a6:
         c1:68:e1:78:80:01:f0:24:c7:c0:3f:54:56:5b:9a:28:58:af:
         92:f2:3f:8c:e0:4b:b6:c7:21:3f:2f:43:fc:4a:b2:ca:08:30:
         4d:e3:97:2d:55:66:63:86:41:20:cd:ff:eb:ea:d7:d9:94:ec:
         ed:b0:1a:46:39:4c:20:f6:66:71:64:62:51:bb:dc:f9:b6:a7:
         10:58:62:37:39:63:d9:ca:46:bb:bf:c5:67:7f:14:69:37:d2:
         fd:d8:96:10:a3:19:83:48:e1:65:08:62:d7:4f:4f:07:7b:ab:
         5e:20:4a:4c:62:69:47:f6:2f:ce:a0:49:63:74:55:0f:57:fa:
         5c:7d:3c:99:73:9d:fe:f5
-----BEGIN CERTIFICATE-----
MIIETDCCAjSgAwIBAgIBATANBgkqhkiG9w0BAQsFADAwMQswCQYDVQQGEwJERTEU
MBIGA1UECgwLaGF3LWhhbWJ1cmcxCzAJBgNVBAMMAkNBMB4XDTE2MTExMjIxNTg1
NFoXDTE2MTIxMDIxNTg1NFowUTELMAkGA1UEBhMCREUxFDASBgNVBAoMC2hhdy1o
YW1idXJnMRMwEQYDVQQLDAppbmZvcm1hdGlrMRcwFQYDVQQDDA5DQS1kaWFuYS15
YXZ1ejCCASIwDQYJKoZIhvcNAQEBBQADggEPADCCAQoCggEBAMFoiHEwTvbShbjn
37Svz+USTp5pqt6arYQA7b8oMgunHcZEAOd53v9w9qWoZCSn+FojeW5iqfQoga05
NvjHMBvLO8eicHzCVMcCMrOUSdotMK8EvOOjmL0o3Red04Bp6zy4HO00WA1SMrgZ
QBQ3OiAl1SbcEcGwtKqOhjqnnMLqVXV5UzocJqRbMALM1y3kdsIvqG9Y/yvvEjCo
FzOG60ktLeExSNGORvX8jUtClRQpcW5AEo9W8sJffUVu/uj8LhP/jsph2Qqg6fbC
B1of9McmfG8PnRFgwMYlZKg8T94wrlkX39l/01HwFM/v61qZz54qMykCphb8S2eJ
sHyU+SUCAwEAAaNQME4wDAYDVR0TBAUwAwEB/zAdBgNVHQ4EFgQUM/mcn3W9sp+6
huOLlB8HhN9qivowHwYDVR0jBBgwFoAU7BtZOli0OfPbwjwnn9w88YuFElYwDQYJ
KoZIhvcNAQELBQADggIBAH2YVG9q5q/m6++y+7o826qmycqmME9aRX8fnO5A3q8d
aZ94Y1OVcGX6UNmhlfNHGWnQsthOJ4el5hvcP3RIvijNiHGdqv0JUIg3fCVkW2gc
Lpb2huMcvNOC1rdK399lwr1BRB41jXOwhK14qyj4jagOnNjtEStAwiUGf4nDYvWG
pitwLJNSqzxDl8Nx7AAPror83CCro/7aQBTPcH8VKF83h08TLQ0SXi7CTjnemsWz
FwWosgb/sL3nMxArp37lk59UItXCcuaJt+1Ev1b7bO0mtFi3rGyJHhDTHbFSsdfe
xwt7qtTL94hgUYSrsPCVA9uNTg7v2LMAdb+MCSpC1ntfESPrHDXdDi7ewHONNm8q
s3vRYqA50sMhY+9Km0F4Iq2ZsnIBFCECuZ6SneHBeh0yf3qfPz6szZ5brppr9W6F
zydpxKfA/Fq3IckTAQ9RBG0dgI2O8GJ8T6VX2ftx36hCbjhHk45NBEQgJ8emuCq5
TzeGPB9PH2X+psFo4XiAAfAkx8A/VFZbmihYr5LyP4zgS7bHIT8vQ/xKssoIME3j
ly1VZmOGQSDN/+vq19mU7O2wGkY5TCD2ZnFkYlG73Pm2pxBYYjc5Y9nKRru/xWd/
FGk30v3YlhCjGYNI4WUIYtdPTwd7q14gSkxiaUf2L86gSWN0VQ9X+lx9PJlznf71
-----END CERTIFICATE-----
