Certificate:
    Data:
        Version: 3 (0x2)
        Serial Number: 1 (0x1)
    Signature Algorithm: sha256WithRSAEncryption
        Issuer: C=DE, O=haw-hamburg, CN=CA
        Validity
            Not Before: Nov 13 16:37:09 2016 GMT
            Not After : Dec 11 16:37:09 2016 GMT
        Subject: C=DE, O=haw-hamburg, OU=informatik, CN=CA-diana-yavuz
        Subject Public Key Info:
            Public Key Algorithm: rsaEncryption
                Public-Key: (2048 bit)
                Modulus:
                    00:bc:8d:37:2a:64:6b:76:2e:28:82:79:f7:54:a8:
                    56:ea:44:97:91:f2:56:82:1a:75:0e:e9:e9:05:1c:
                    43:20:f9:1e:57:5f:bc:bb:ec:53:49:92:3a:a2:48:
                    fb:02:dc:40:15:4a:15:19:2f:2e:23:b9:26:e5:92:
                    e4:b1:a0:3e:b9:51:f0:48:2b:da:35:c4:90:f1:32:
                    b1:5a:ff:ef:9a:e8:4c:dc:60:19:1c:cc:71:ff:55:
                    28:4b:98:4d:dd:16:fd:13:cc:65:52:a7:14:71:2a:
                    8f:00:9d:43:c8:8e:bd:f1:29:49:13:e6:3f:4d:0a:
                    08:a0:56:33:6b:ff:09:85:4a:bc:c7:8d:35:2b:41:
                    dd:0d:f8:c8:fe:c3:27:9d:8c:61:79:99:fc:26:d6:
                    23:9f:29:7c:99:61:d0:1d:1b:1b:b0:dc:e9:a0:f3:
                    5d:f3:75:fa:9a:95:ca:d7:b0:10:00:50:b1:2e:87:
                    5e:ff:67:a8:47:04:81:74:d3:d9:0d:b8:52:16:1e:
                    01:09:78:38:ad:23:0a:62:12:5c:03:90:13:c2:dc:
                    9a:3e:23:00:1b:ee:48:f1:cd:cb:92:ee:ec:90:09:
                    4b:eb:f2:68:f0:7d:0a:45:b0:6e:d3:f6:46:b6:84:
                    81:e6:2d:83:15:dc:c2:e6:fd:9f:2d:a7:ff:fd:a7:
                    be:93
                Exponent: 65537 (0x10001)
        X509v3 extensions:
            X509v3 Subject Key Identifier: 
                99:DF:63:35:2A:C9:F0:A6:A6:78:7E:72:94:2D:B3:0B:83:EA:F0:DB
            X509v3 Authority Key Identifier: 
                keyid:EF:C0:AD:44:66:38:58:1F:5D:EA:69:13:30:C9:3D:FE:41:0C:5C:3B

            X509v3 Basic Constraints: critical
                CA:TRUE, pathlen:0
            X509v3 Key Usage: critical
                Digital Signature, Certificate Sign, CRL Sign
    Signature Algorithm: sha256WithRSAEncryption
         06:53:8a:f4:65:e1:26:9d:93:b3:7a:13:ae:1c:23:64:db:6d:
         ad:e5:a9:ab:da:e2:df:5f:6e:64:62:ed:57:6f:98:26:4e:c6:
         b3:87:ed:81:2c:53:00:8f:58:cb:26:98:32:4e:1b:31:e8:65:
         c4:2a:22:2b:db:b3:55:84:13:c8:a8:94:57:76:d9:47:c2:1b:
         b2:d1:0e:1c:9d:23:c8:3b:c0:5f:6a:38:f8:41:b3:51:2c:3c:
         66:dd:57:7d:bc:7c:4c:b9:25:0a:90:b3:d6:a3:58:b3:6d:f8:
         79:17:62:0c:0d:37:65:58:cc:65:a7:da:8a:2e:ae:ed:51:37:
         2a:ec:a8:00:1e:70:26:42:bb:96:76:67:b0:51:e4:6b:5b:7b:
         58:63:ac:fc:1c:ed:f4:99:dc:fd:79:10:22:2e:7c:f9:0d:ce:
         9c:44:e4:89:73:6f:01:c0:6c:f3:ae:d4:7e:75:74:f2:7c:b7:
         f2:2a:2c:ee:99:ed:81:cc:ee:28:0c:d5:de:44:77:e4:a5:5b:
         3b:00:2d:66:54:c8:fa:99:7a:53:4c:2f:d6:26:27:9e:42:ef:
         4b:b0:be:35:9e:c7:39:be:de:c2:2e:6f:81:c1:83:cf:ae:33:
         c5:16:3f:5c:b5:5f:0c:df:9f:86:d4:eb:fd:31:76:f5:b4:cb:
         15:b0:89:54
-----BEGIN CERTIFICATE-----
MIIDYjCCAkqgAwIBAgIBATANBgkqhkiG9w0BAQsFADAwMQswCQYDVQQGEwJERTEU
MBIGA1UECgwLaGF3LWhhbWJ1cmcxCzAJBgNVBAMMAkNBMB4XDTE2MTExMzE2Mzcw
OVoXDTE2MTIxMTE2MzcwOVowUTELMAkGA1UEBhMCREUxFDASBgNVBAoMC2hhdy1o
YW1idXJnMRMwEQYDVQQLDAppbmZvcm1hdGlrMRcwFQYDVQQDDA5DQS1kaWFuYS15
YXZ1ejCCASIwDQYJKoZIhvcNAQEBBQADggEPADCCAQoCggEBALyNNypka3YuKIJ5
91SoVupEl5HyVoIadQ7p6QUcQyD5HldfvLvsU0mSOqJI+wLcQBVKFRkvLiO5JuWS
5LGgPrlR8Egr2jXEkPEysVr/75roTNxgGRzMcf9VKEuYTd0W/RPMZVKnFHEqjwCd
Q8iOvfEpSRPmP00KCKBWM2v/CYVKvMeNNStB3Q34yP7DJ52MYXmZ/CbWI58pfJlh
0B0bG7Dc6aDzXfN1+pqVytewEABQsS6HXv9nqEcEgXTT2Q24UhYeAQl4OK0jCmIS
XAOQE8Lcmj4jABvuSPHNy5Lu7JAJS+vyaPB9CkWwbtP2RraEgeYtgxXcwub9ny2n
//2nvpMCAwEAAaNmMGQwHQYDVR0OBBYEFJnfYzUqyfCmpnh+cpQtswuD6vDbMB8G
A1UdIwQYMBaAFO/ArURmOFgfXeppEzDJPf5BDFw7MBIGA1UdEwEB/wQIMAYBAf8C
AQAwDgYDVR0PAQH/BAQDAgGGMA0GCSqGSIb3DQEBCwUAA4IBAQAGU4r0ZeEmnZOz
ehOuHCNk222t5amr2uLfX25kYu1Xb5gmTsazh+2BLFMAj1jLJpgyThsx6GXEKiIr
27NVhBPIqJRXdtlHwhuy0Q4cnSPIO8Bfajj4QbNRLDxm3Vd9vHxMuSUKkLPWo1iz
bfh5F2IMDTdlWMxlp9qKLq7tUTcq7KgAHnAmQruWdmewUeRrW3tYY6z8HO30mdz9
eRAiLnz5Dc6cROSJc28BwGzzrtR+dXTyfLfyKizume2BzO4oDNXeRHfkpVs7AC1m
VMj6mXpTTC/WJieeQu9LsL41nsc5vt7CLm+BwYPPrjPFFj9ctV8M35+G1Ov9MXb1
tMsVsIlU
-----END CERTIFICATE-----
