Certificate:
    Data:
        Version: 3 (0x2)
        Serial Number: 1 (0x1)
    Signature Algorithm: sha256WithRSAEncryption
        Issuer: C=DE, O=haw-hamburg, CN=CA
        Validity
            Not Before: Dec 12 20:52:47 2016 GMT
            Not After : Jan  9 20:52:47 2017 GMT
        Subject: C=DE, O=haw-hamburg, OU=informatik, CN=CA-diana-yavuz
        Subject Public Key Info:
            Public Key Algorithm: rsaEncryption
                Public-Key: (2048 bit)
                Modulus:
                    00:d2:33:09:2b:ed:75:3b:fa:aa:a3:e1:94:66:ff:
                    c2:bb:d1:a7:9d:5e:e8:4b:aa:56:8c:b7:6e:d7:fc:
                    5a:69:75:2a:08:d7:61:c2:f7:fb:42:58:69:b5:f2:
                    27:eb:f5:7a:44:85:7e:6b:e8:31:cb:98:ff:81:f8:
                    eb:c2:3f:9d:3b:f0:38:4c:f3:dc:27:6d:02:fd:b6:
                    06:f2:f6:44:26:a9:b4:ea:5c:df:e4:4b:c5:b1:13:
                    d0:48:f2:dc:cc:b4:51:e6:e3:f9:de:b3:0a:32:19:
                    1c:da:1f:bb:7d:bf:f9:14:56:ca:3c:ad:57:9c:1c:
                    61:f4:04:3d:92:b4:f1:fa:3e:e2:3c:19:cc:0f:7a:
                    ae:b9:88:bc:52:65:62:fc:e4:41:99:15:af:55:66:
                    9a:72:04:7b:a6:fe:06:01:dd:6f:de:d1:f3:39:8e:
                    4a:8b:75:55:a8:24:e7:72:69:3f:00:cc:9c:6c:3b:
                    f1:87:dd:59:9e:10:65:1b:37:ea:43:3e:b2:12:41:
                    7f:77:66:c7:2e:5f:e2:24:40:55:d0:a9:1b:c9:a0:
                    fa:58:cd:98:35:03:39:a7:fe:c1:d4:02:58:f2:10:
                    5c:80:42:de:ac:2e:cd:9f:ac:72:83:da:d1:53:92:
                    8b:c4:7c:f0:d1:8c:4f:e7:88:4d:39:a9:d7:df:b7:
                    fd:b5
                Exponent: 65537 (0x10001)
        X509v3 extensions:
            X509v3 Subject Key Identifier: 
                4F:31:CE:DE:AE:0A:D5:17:E7:C2:23:9A:DA:29:3A:A1:9B:D3:C0:8F
            X509v3 Authority Key Identifier: 
                keyid:B4:80:74:77:CF:55:3B:C8:30:E9:89:66:5D:E7:4F:EA:E3:B2:85:07

            X509v3 Basic Constraints: critical
                CA:TRUE, pathlen:0
            X509v3 Key Usage: critical
                Digital Signature, Certificate Sign, CRL Sign
    Signature Algorithm: sha256WithRSAEncryption
         23:86:e9:32:d1:86:de:95:ac:73:b8:e3:c1:fa:4d:03:e2:ff:
         03:50:48:f8:9d:9e:34:2a:de:3b:76:0c:ae:4e:e7:ee:a7:3d:
         21:15:0c:a9:f1:31:69:f2:2a:62:7d:ed:d1:f8:e7:65:80:92:
         cc:6c:8d:57:15:57:ae:b2:25:bb:80:de:6a:ef:7f:c9:9f:8f:
         e3:d6:7b:4a:74:06:de:cb:78:93:61:f1:88:d2:01:15:40:ab:
         30:50:83:37:06:6b:eb:c5:9a:2a:06:f2:6c:ea:c1:e6:8e:68:
         e9:37:72:eb:23:29:0d:32:c4:77:9b:26:2d:e2:6b:d0:53:19:
         75:2e:3d:62:f7:4f:b7:e1:04:38:b0:f1:da:13:c3:96:3a:1a:
         2f:bd:c2:2b:b5:69:bc:02:d9:14:93:d0:ba:0c:2c:42:03:9b:
         85:ef:5d:fa:06:c3:f4:86:21:c4:d6:1e:96:6a:0f:c7:a8:d4:
         0d:84:30:f0:b8:40:d2:93:cf:07:37:49:37:fa:9a:8e:c5:03:
         56:10:22:4f:de:b0:59:f4:d3:b9:f7:1e:b9:73:cf:58:50:20:
         be:97:1c:ba:3b:5a:9c:91:91:b3:63:48:75:9e:8e:ec:2a:aa:
         bf:5c:17:1a:a4:55:34:a7:3d:19:c4:6a:2e:61:5d:6e:c0:70:
         69:e4:3c:51
-----BEGIN CERTIFICATE-----
MIIDYjCCAkqgAwIBAgIBATANBgkqhkiG9w0BAQsFADAwMQswCQYDVQQGEwJERTEU
MBIGA1UECgwLaGF3LWhhbWJ1cmcxCzAJBgNVBAMMAkNBMB4XDTE2MTIxMjIwNTI0
N1oXDTE3MDEwOTIwNTI0N1owUTELMAkGA1UEBhMCREUxFDASBgNVBAoMC2hhdy1o
YW1idXJnMRMwEQYDVQQLDAppbmZvcm1hdGlrMRcwFQYDVQQDDA5DQS1kaWFuYS15
YXZ1ejCCASIwDQYJKoZIhvcNAQEBBQADggEPADCCAQoCggEBANIzCSvtdTv6qqPh
lGb/wrvRp51e6EuqVoy3btf8Wml1KgjXYcL3+0JYabXyJ+v1ekSFfmvoMcuY/4H4
68I/nTvwOEzz3CdtAv22BvL2RCaptOpc3+RLxbET0Ejy3My0Uebj+d6zCjIZHNof
u32/+RRWyjytV5wcYfQEPZK08fo+4jwZzA96rrmIvFJlYvzkQZkVr1VmmnIEe6b+
BgHdb97R8zmOSot1Vagk53JpPwDMnGw78YfdWZ4QZRs36kM+shJBf3dmxy5f4iRA
VdCpG8mg+ljNmDUDOaf+wdQCWPIQXIBC3qwuzZ+scoPa0VOSi8R88NGMT+eITTmp
19+3/bUCAwEAAaNmMGQwHQYDVR0OBBYEFE8xzt6uCtUX58IjmtopOqGb08CPMB8G
A1UdIwQYMBaAFLSAdHfPVTvIMOmJZl3nT+rjsoUHMBIGA1UdEwEB/wQIMAYBAf8C
AQAwDgYDVR0PAQH/BAQDAgGGMA0GCSqGSIb3DQEBCwUAA4IBAQAjhuky0Ybelaxz
uOPB+k0D4v8DUEj4nZ40Kt47dgyuTufupz0hFQyp8TFp8ipife3R+OdlgJLMbI1X
FVeusiW7gN5q73/Jn4/j1ntKdAbey3iTYfGI0gEVQKswUIM3BmvrxZoqBvJs6sHm
jmjpN3LrIykNMsR3myYt4mvQUxl1Lj1i90+34QQ4sPHaE8OWOhovvcIrtWm8AtkU
k9C6DCxCA5uF7136BsP0hiHE1h6Wag/HqNQNhDDwuEDSk88HN0k3+pqOxQNWECJP
3rBZ9NO59x65c89YUCC+lxy6O1qckZGzY0h1no7sKqq/XBcapFU0pz0ZxGouYV1u
wHBp5DxR
-----END CERTIFICATE-----
