Certificate:
    Data:
        Version: 3 (0x2)
        Serial Number: 2 (0x2)
    Signature Algorithm: sha256WithRSAEncryption
        Issuer: C=DE, O=haw-hamburg, CN=CA
        Validity
            Not Before: Nov 13 16:41:47 2016 GMT
            Not After : Dec 11 16:41:47 2016 GMT
        Subject: C=DE, O=haw-hamburg, OU=informatik, CN=CA-diana-yavuz
        Subject Public Key Info:
            Public Key Algorithm: rsaEncryption
                Public-Key: (2048 bit)
                Modulus:
                    00:aa:da:53:78:8d:80:7c:d5:2a:83:13:79:e4:fd:
                    28:76:d2:62:a8:6a:41:d3:fe:32:34:7a:27:c1:d1:
                    94:94:f3:e4:c9:7a:48:df:b1:3c:5c:f3:53:b8:31:
                    31:b8:2e:9b:62:e8:49:da:1c:78:6e:63:02:0b:d1:
                    ea:8d:cd:c3:f6:b2:44:2a:8a:de:50:bf:d2:68:01:
                    5d:3b:4f:8b:65:4e:f0:13:fb:eb:1e:33:7c:a3:cb:
                    02:1b:1c:e6:5d:52:0e:00:b5:53:9e:1d:c3:0b:86:
                    c2:35:c7:ac:15:7a:0e:5a:74:4a:73:c9:e7:a5:fb:
                    df:db:e1:86:e8:ba:0c:9d:a7:69:74:12:9b:b2:7c:
                    5e:b3:04:9c:6a:d2:3f:69:47:18:e8:13:0a:c6:a7:
                    7a:ac:e3:1d:ec:48:ac:40:a6:90:32:76:92:51:7d:
                    e1:2b:7a:58:93:86:87:e4:22:ef:b3:43:55:13:86:
                    92:5c:59:3c:3c:69:6b:c6:31:93:38:76:2c:78:23:
                    8d:e8:a7:92:25:78:34:04:56:94:e0:39:da:89:df:
                    63:34:b5:84:75:0c:b1:ed:0d:53:0d:4f:6b:02:a8:
                    f5:87:20:ab:ca:a5:ee:8e:56:3d:43:ef:0e:c0:31:
                    34:e5:14:fc:56:66:80:4f:79:fd:0b:72:e2:13:47:
                    f2:8b
                Exponent: 65537 (0x10001)
        X509v3 extensions:
            X509v3 Subject Key Identifier: 
                5D:BE:46:DE:59:7E:9A:5B:D2:3D:37:F2:F8:E2:10:12:29:C1:EF:30
            X509v3 Authority Key Identifier: 
                keyid:39:06:CF:1C:0F:A4:D3:4F:F5:A6:1F:96:15:05:CB:7F:C1:93:0D:46

            X509v3 Basic Constraints: critical
                CA:TRUE, pathlen:0
            X509v3 Key Usage: critical
                Digital Signature, Certificate Sign, CRL Sign
    Signature Algorithm: sha256WithRSAEncryption
         97:92:ae:a2:3b:53:59:26:a8:ca:37:e4:d7:ff:a7:6c:54:94:
         fc:ac:9f:f9:e6:4f:10:0e:43:12:b7:c5:00:7f:ba:82:b3:df:
         dc:65:1e:14:17:fc:f5:db:b8:2f:33:d2:4b:d6:11:38:fe:e4:
         3f:dd:de:08:38:01:51:e9:69:52:de:b3:f9:8d:5b:23:51:25:
         dd:79:f2:6b:88:b6:65:7d:e7:a0:52:d8:26:a9:01:c6:9e:9a:
         8d:55:a0:eb:c2:61:6d:54:3e:8d:b1:db:4b:46:2f:65:22:a0:
         6b:d2:3e:07:09:04:82:82:0a:8a:80:80:d4:6d:9d:f1:a9:87:
         57:8d:55:4c:7d:df:59:fb:1b:f3:e0:ea:9e:5f:9c:72:87:b3:
         0f:ba:11:1d:12:84:76:28:04:19:de:56:e4:de:a3:af:03:d0:
         cf:9c:b4:da:6c:5e:55:4d:f5:b1:4b:ef:d9:41:c3:cf:b5:59:
         fe:fd:a2:80:3e:47:ab:66:23:1d:c2:f6:1b:6e:f5:31:83:a8:
         fe:f2:3c:04:f9:84:5f:bf:5d:c6:a7:38:b5:57:51:0e:2d:b3:
         61:c0:90:13:08:0e:3b:27:12:1f:ba:62:43:3e:56:28:04:fc:
         a0:12:3d:b7:3c:22:68:d7:8f:24:4f:bf:44:71:23:6e:3e:f5:
         f0:61:c7:4e
-----BEGIN CERTIFICATE-----
MIIDYjCCAkqgAwIBAgIBAjANBgkqhkiG9w0BAQsFADAwMQswCQYDVQQGEwJERTEU
MBIGA1UECgwLaGF3LWhhbWJ1cmcxCzAJBgNVBAMMAkNBMB4XDTE2MTExMzE2NDE0
N1oXDTE2MTIxMTE2NDE0N1owUTELMAkGA1UEBhMCREUxFDASBgNVBAoMC2hhdy1o
YW1idXJnMRMwEQYDVQQLDAppbmZvcm1hdGlrMRcwFQYDVQQDDA5DQS1kaWFuYS15
YXZ1ejCCASIwDQYJKoZIhvcNAQEBBQADggEPADCCAQoCggEBAKraU3iNgHzVKoMT
eeT9KHbSYqhqQdP+MjR6J8HRlJTz5Ml6SN+xPFzzU7gxMbgum2LoSdoceG5jAgvR
6o3Nw/ayRCqK3lC/0mgBXTtPi2VO8BP76x4zfKPLAhsc5l1SDgC1U54dwwuGwjXH
rBV6Dlp0SnPJ56X739vhhui6DJ2naXQSm7J8XrMEnGrSP2lHGOgTCsaneqzjHexI
rECmkDJ2klF94St6WJOGh+Qi77NDVROGklxZPDxpa8Yxkzh2LHgjjeinkiV4NARW
lOA52onfYzS1hHUMse0NUw1PawKo9Ycgq8ql7o5WPUPvDsAxNOUU/FZmgE95/Qty
4hNH8osCAwEAAaNmMGQwHQYDVR0OBBYEFF2+Rt5Zfppb0j038vjiEBIpwe8wMB8G
A1UdIwQYMBaAFDkGzxwPpNNP9aYflhUFy3/Bkw1GMBIGA1UdEwEB/wQIMAYBAf8C
AQAwDgYDVR0PAQH/BAQDAgGGMA0GCSqGSIb3DQEBCwUAA4IBAQCXkq6iO1NZJqjK
N+TX/6dsVJT8rJ/55k8QDkMSt8UAf7qCs9/cZR4UF/z127gvM9JL1hE4/uQ/3d4I
OAFR6WlS3rP5jVsjUSXdefJriLZlfeegUtgmqQHGnpqNVaDrwmFtVD6NsdtLRi9l
IqBr0j4HCQSCggqKgIDUbZ3xqYdXjVVMfd9Z+xvz4OqeX5xyh7MPuhEdEoR2KAQZ
3lbk3qOvA9DPnLTabF5VTfWxS+/ZQcPPtVn+/aKAPkerZiMdwvYbbvUxg6j+8jwE
+YRfv13Gpzi1V1EOLbNhwJATCA47JxIfumJDPlYoBPygEj23PCJo148kT79EcSNu
PvXwYcdO
-----END CERTIFICATE-----
