Certificate:
    Data:
        Version: 3 (0x2)
        Serial Number: 3 (0x3)
    Signature Algorithm: sha256WithRSAEncryption
        Issuer: C=DE, O=haw-hamburg, CN=CA
        Validity
            Not Before: Nov 13 16:42:29 2016 GMT
            Not After : Dec 11 16:42:29 2016 GMT
        Subject: C=DE, O=haw-hamburg, OU=informatik, CN=CA-diana-yavuz
        Subject Public Key Info:
            Public Key Algorithm: rsaEncryption
                Public-Key: (2048 bit)
                Modulus:
                    00:bd:45:81:67:5c:aa:e3:ba:fc:64:c3:df:71:ca:
                    8c:5d:0b:87:8e:a8:66:62:23:0f:ea:32:98:ae:ef:
                    31:e4:29:a4:4b:61:fe:01:1a:79:1e:e4:b1:a3:7f:
                    61:20:48:bf:65:96:85:30:59:ec:5a:d0:67:ce:1d:
                    fa:21:ec:ce:96:f4:4b:83:4c:2e:e2:a6:65:91:03:
                    14:1a:76:27:5e:e4:1d:4d:60:35:d0:e0:33:c4:db:
                    92:35:29:37:0e:cf:9f:a4:18:32:0f:57:f3:f4:1f:
                    8a:b3:d2:a5:4e:a9:43:ba:1c:ae:41:e7:79:b6:9b:
                    43:82:a0:ca:27:26:33:95:c8:2e:3e:35:aa:51:9f:
                    73:96:1f:ba:e8:bf:50:1f:37:eb:16:89:0a:ff:9d:
                    80:e2:3c:b2:ce:da:76:1e:5d:a6:54:09:5a:9b:60:
                    0b:c0:ec:6d:87:a0:1c:47:41:39:02:b1:0f:cb:72:
                    1d:cc:41:d9:ed:30:40:f0:10:c8:90:7b:78:81:c4:
                    0b:2e:65:45:80:8c:ee:30:98:c4:4f:a2:17:92:75:
                    ed:1d:c3:8d:e0:cd:a3:88:c7:c6:ec:cf:35:84:0e:
                    88:dc:84:ad:61:04:c0:f0:3a:96:b1:e3:a4:89:fa:
                    22:ee:b4:fe:a4:30:d0:eb:ab:79:48:ce:5d:66:f8:
                    c7:9d
                Exponent: 65537 (0x10001)
        X509v3 extensions:
            X509v3 Subject Key Identifier: 
                55:0A:35:BE:0C:E8:A5:62:90:A6:23:67:01:81:7B:B6:E3:4E:A4:C8
            X509v3 Authority Key Identifier: 
                keyid:24:21:F6:99:27:DF:4B:F8:FB:10:B7:9C:27:34:03:96:63:4E:2D:16

            X509v3 Basic Constraints: critical
                CA:TRUE, pathlen:0
            X509v3 Key Usage: critical
                Digital Signature, Certificate Sign, CRL Sign
    Signature Algorithm: sha256WithRSAEncryption
         50:38:cc:8d:3d:26:77:6a:ea:5c:f7:8a:91:b0:96:fa:be:50:
         b2:d8:9f:84:1b:21:21:89:ee:de:fb:0b:e8:8f:07:bd:1d:44:
         6a:fc:3f:8d:76:b4:6c:df:45:87:5b:64:fe:3e:78:df:35:e3:
         90:72:19:50:3b:d0:4c:c9:fc:a9:a3:43:26:b8:9b:d4:a5:91:
         18:38:36:52:98:fa:ac:09:9f:dc:68:b5:40:0c:a4:be:bd:85:
         78:44:d8:16:dd:31:46:50:57:08:2c:6e:cf:1a:71:84:0d:bb:
         1a:ab:d9:d7:3d:a0:62:6f:3f:f4:55:dd:a3:16:3b:69:29:6e:
         82:f8:8d:bc:23:d6:9a:bd:e0:20:9e:23:25:29:05:2d:fc:92:
         de:a3:86:4c:90:f9:f2:ad:73:92:bf:ea:84:2f:c2:50:04:c3:
         f9:c9:43:da:1b:fb:19:72:fe:1b:f0:55:8c:81:55:e5:dd:9f:
         31:cb:99:a7:16:63:37:c6:6a:6a:c9:ad:12:13:dd:6d:f5:7f:
         0d:55:69:cd:86:c9:ca:57:e7:e3:89:55:24:f3:96:3d:03:0e:
         04:66:e7:37:06:39:a3:e0:41:f3:19:f7:54:dc:9a:91:ea:56:
         9a:57:9c:7a:71:1a:58:5f:98:99:f6:3f:7e:41:ed:b5:4d:1f:
         11:02:05:6a
-----BEGIN CERTIFICATE-----
MIIDYjCCAkqgAwIBAgIBAzANBgkqhkiG9w0BAQsFADAwMQswCQYDVQQGEwJERTEU
MBIGA1UECgwLaGF3LWhhbWJ1cmcxCzAJBgNVBAMMAkNBMB4XDTE2MTExMzE2NDIy
OVoXDTE2MTIxMTE2NDIyOVowUTELMAkGA1UEBhMCREUxFDASBgNVBAoMC2hhdy1o
YW1idXJnMRMwEQYDVQQLDAppbmZvcm1hdGlrMRcwFQYDVQQDDA5DQS1kaWFuYS15
YXZ1ejCCASIwDQYJKoZIhvcNAQEBBQADggEPADCCAQoCggEBAL1FgWdcquO6/GTD
33HKjF0Lh46oZmIjD+oymK7vMeQppEth/gEaeR7ksaN/YSBIv2WWhTBZ7FrQZ84d
+iHszpb0S4NMLuKmZZEDFBp2J17kHU1gNdDgM8TbkjUpNw7Pn6QYMg9X8/QfirPS
pU6pQ7ocrkHnebabQ4KgyicmM5XILj41qlGfc5Yfuui/UB836xaJCv+dgOI8ss7a
dh5dplQJWptgC8DsbYegHEdBOQKxD8tyHcxB2e0wQPAQyJB7eIHECy5lRYCM7jCY
xE+iF5J17R3DjeDNo4jHxuzPNYQOiNyErWEEwPA6lrHjpIn6Iu60/qQw0OureUjO
XWb4x50CAwEAAaNmMGQwHQYDVR0OBBYEFFUKNb4M6KVikKYjZwGBe7bjTqTIMB8G
A1UdIwQYMBaAFCQh9pkn30v4+xC3nCc0A5ZjTi0WMBIGA1UdEwEB/wQIMAYBAf8C
AQAwDgYDVR0PAQH/BAQDAgGGMA0GCSqGSIb3DQEBCwUAA4IBAQBQOMyNPSZ3aupc
94qRsJb6vlCy2J+EGyEhie7e+wvojwe9HURq/D+NdrRs30WHW2T+PnjfNeOQchlQ
O9BMyfypo0MmuJvUpZEYODZSmPqsCZ/caLVADKS+vYV4RNgW3TFGUFcILG7PGnGE
Dbsaq9nXPaBibz/0Vd2jFjtpKW6C+I28I9aaveAgniMlKQUt/JLeo4ZMkPnyrXOS
v+qEL8JQBMP5yUPaG/sZcv4b8FWMgVXl3Z8xy5mnFmM3xmpqya0SE91t9X8NVWnN
hsnKV+fjiVUk85Y9Aw4EZuc3Bjmj4EHzGfdU3JqR6laaV5x6cRpYX5iZ9j9+Qe21
TR8RAgVq
-----END CERTIFICATE-----
