Certificate:
    Data:
        Version: 3 (0x2)
        Serial Number: 4 (0x4)
    Signature Algorithm: sha256WithRSAEncryption
        Issuer: C=DE, O=haw-hamburg, CN=CA
        Validity
            Not Before: Nov 13 16:53:26 2016 GMT
            Not After : Dec 11 16:53:26 2016 GMT
        Subject: C=DE, O=haw-hamburg, OU=informatik, CN=CA-diana-yavuz
        Subject Public Key Info:
            Public Key Algorithm: rsaEncryption
                Public-Key: (2048 bit)
                Modulus:
                    00:c1:36:b4:8c:89:e0:3e:8c:d5:38:5f:70:24:eb:
                    47:00:4c:07:f4:f1:8e:54:61:bb:94:a0:41:38:13:
                    e8:e5:90:57:90:88:c2:26:b7:58:15:e4:9b:3a:73:
                    10:09:0c:31:23:b9:fe:db:d3:2c:93:62:cb:bc:1f:
                    dd:e8:33:96:9e:56:16:c2:bd:90:2f:51:6c:3f:ce:
                    51:cf:82:51:2c:d4:2b:9d:d8:dc:af:ff:8c:d7:10:
                    12:8c:0d:88:f1:7e:db:5a:a5:b9:7b:a7:6d:b3:95:
                    8d:ba:31:0e:0f:9a:56:df:13:96:1e:a7:5e:9e:e3:
                    53:c2:c1:08:af:b3:bd:c1:ef:79:21:5c:49:d7:ae:
                    90:3b:9c:fc:ac:01:3a:37:52:7e:38:e9:b0:7b:22:
                    1c:b4:84:a3:16:1a:52:38:f1:41:95:04:a0:c5:73:
                    05:7f:f9:c5:bc:21:b5:39:e0:e2:14:72:7e:2c:c1:
                    4a:bf:18:36:bc:4d:9a:2f:d4:b2:75:e8:72:cd:a3:
                    cd:71:28:3e:6a:2b:c6:dd:42:7f:46:3b:07:29:e7:
                    8d:2a:4c:44:b8:ad:75:9b:ce:ce:82:29:ca:06:93:
                    52:df:6b:87:01:e0:5b:48:b6:ee:2e:7b:44:a3:de:
                    d5:6c:7e:bd:b7:12:1f:e2:8e:3f:8a:bf:62:f7:86:
                    04:b3
                Exponent: 65537 (0x10001)
        X509v3 extensions:
            X509v3 Subject Key Identifier: 
                06:2E:72:C4:C3:38:1A:77:13:3B:7E:3F:AE:56:99:DB:A5:84:DC:C0
            X509v3 Authority Key Identifier: 
                keyid:10:06:EB:2C:1A:18:C2:D5:F7:FA:13:50:F9:65:13:01:E2:78:AA:AB

            X509v3 Basic Constraints: critical
                CA:TRUE, pathlen:0
            X509v3 Key Usage: critical
                Digital Signature, Certificate Sign, CRL Sign
    Signature Algorithm: sha256WithRSAEncryption
         d2:c8:76:60:48:98:5e:56:43:b7:cc:bf:aa:73:49:2d:ee:46:
         fe:8c:0e:61:23:54:8b:77:c9:c2:0d:e0:d5:09:fb:a0:39:07:
         60:9a:dd:25:b9:fa:bc:b0:e3:92:e7:1a:65:63:ad:ed:c7:f3:
         fe:35:97:26:3e:f5:e3:21:c1:9a:7f:d4:85:80:42:fa:b0:a4:
         cf:1e:6b:83:7a:28:f0:6c:04:69:40:26:95:36:ad:65:bc:f7:
         c1:a4:6e:43:1d:02:19:26:c0:8f:a6:f2:5a:a9:5d:f5:cf:33:
         c1:86:43:0f:e6:b5:09:90:f7:e9:93:1c:15:bf:3d:02:8d:7b:
         69:9b:24:f2:80:eb:ad:4a:da:0a:43:83:ed:1b:d2:b9:c8:9d:
         35:38:f1:a6:02:6e:70:8d:97:8b:81:f9:ad:56:79:34:05:aa:
         22:35:a3:b5:4e:07:02:82:ee:d1:d8:55:0f:5a:7f:7c:27:49:
         e7:ee:89:21:86:ca:87:be:9b:29:95:ab:47:e6:ae:45:97:b8:
         71:6c:eb:0a:d0:7c:ea:8a:04:c0:be:a1:e0:3d:db:b7:a5:fe:
         87:90:23:66:33:16:70:2d:5b:f6:38:4a:cb:ef:77:af:fb:92:
         3e:1f:f7:6e:99:40:83:91:ba:36:90:66:29:65:ed:0c:fa:19:
         c4:47:e7:67
-----BEGIN CERTIFICATE-----
MIIDYjCCAkqgAwIBAgIBBDANBgkqhkiG9w0BAQsFADAwMQswCQYDVQQGEwJERTEU
MBIGA1UECgwLaGF3LWhhbWJ1cmcxCzAJBgNVBAMMAkNBMB4XDTE2MTExMzE2NTMy
NloXDTE2MTIxMTE2NTMyNlowUTELMAkGA1UEBhMCREUxFDASBgNVBAoMC2hhdy1o
YW1idXJnMRMwEQYDVQQLDAppbmZvcm1hdGlrMRcwFQYDVQQDDA5DQS1kaWFuYS15
YXZ1ejCCASIwDQYJKoZIhvcNAQEBBQADggEPADCCAQoCggEBAME2tIyJ4D6M1Thf
cCTrRwBMB/TxjlRhu5SgQTgT6OWQV5CIwia3WBXkmzpzEAkMMSO5/tvTLJNiy7wf
3egzlp5WFsK9kC9RbD/OUc+CUSzUK53Y3K//jNcQEowNiPF+21qluXunbbOVjbox
Dg+aVt8Tlh6nXp7jU8LBCK+zvcHveSFcSdeukDuc/KwBOjdSfjjpsHsiHLSEoxYa
UjjxQZUEoMVzBX/5xbwhtTng4hRyfizBSr8YNrxNmi/UsnXocs2jzXEoPmorxt1C
f0Y7BynnjSpMRLitdZvOzoIpygaTUt9rhwHgW0i27i57RKPe1Wx+vbcSH+KOP4q/
YveGBLMCAwEAAaNmMGQwHQYDVR0OBBYEFAYucsTDOBp3Ezt+P65WmdulhNzAMB8G
A1UdIwQYMBaAFBAG6ywaGMLV9/oTUPllEwHieKqrMBIGA1UdEwEB/wQIMAYBAf8C
AQAwDgYDVR0PAQH/BAQDAgGGMA0GCSqGSIb3DQEBCwUAA4IBAQDSyHZgSJheVkO3
zL+qc0kt7kb+jA5hI1SLd8nCDeDVCfugOQdgmt0lufq8sOOS5xplY63tx/P+NZcm
PvXjIcGaf9SFgEL6sKTPHmuDeijwbARpQCaVNq1lvPfBpG5DHQIZJsCPpvJaqV31
zzPBhkMP5rUJkPfpkxwVvz0CjXtpmyTygOutStoKQ4PtG9K5yJ01OPGmAm5wjZeL
gfmtVnk0BaoiNaO1TgcCgu7R2FUPWn98J0nn7okhhsqHvpsplatH5q5Fl7hxbOsK
0HzqigTAvqHgPdu3pf6HkCNmMxZwLVv2OErL73ev+5I+H/dumUCDkbo2kGYpZe0M
+hnER+dn
-----END CERTIFICATE-----
