Certificate:
    Data:
        Version: 3 (0x2)
        Serial Number: 5 (0x5)
    Signature Algorithm: sha256WithRSAEncryption
        Issuer: C=DE, O=haw-hamburg, CN=CA
        Validity
            Not Before: Nov 13 17:10:26 2016 GMT
            Not After : Dec 11 17:10:26 2016 GMT
        Subject: C=DE, O=haw-hamburg, OU=informatik, CN=CA-diana-yavuz
        Subject Public Key Info:
            Public Key Algorithm: rsaEncryption
                Public-Key: (2048 bit)
                Modulus:
                    00:d4:06:9a:e9:ec:9a:ad:aa:a7:52:97:8e:a2:bc:
                    6e:87:c7:b4:f0:05:b6:c5:49:0d:0d:2e:71:5e:eb:
                    43:7e:ef:68:51:29:88:53:09:c3:0d:e0:7d:75:98:
                    14:9f:39:78:3a:1b:06:5a:0c:7c:0e:7a:24:c7:20:
                    b3:b8:1a:b5:18:4f:d4:52:e9:e9:3f:32:be:f9:06:
                    1c:47:91:98:b9:ce:35:9c:a2:c7:a4:4e:df:93:4c:
                    b4:f9:55:80:1e:6a:91:4b:25:d1:69:8a:cb:fe:4c:
                    8e:0f:c2:70:d6:a3:cf:64:5f:65:0e:b4:a6:c8:ad:
                    50:90:8a:10:10:e2:a8:a5:dc:bf:e8:4a:95:d3:4c:
                    3a:13:30:28:55:62:c4:3b:62:e8:b6:d5:0b:6f:74:
                    cb:5a:2f:99:41:fd:ea:52:7e:6e:cd:50:7b:ab:c2:
                    ba:ad:a7:f6:7b:d2:2f:77:1a:9f:10:cf:ec:4e:d4:
                    a6:3a:9c:d0:ab:3f:17:7f:75:e6:e8:4c:d9:3a:8a:
                    2d:05:db:3b:0a:e6:97:ba:7b:1c:b1:7a:59:fa:df:
                    c2:9b:ce:28:f7:de:ca:10:27:d7:84:25:b5:13:14:
                    95:1c:d1:89:cd:79:b9:c0:75:a5:a8:51:7d:69:f1:
                    a3:9c:9b:b8:2c:22:33:60:dc:54:9f:36:27:21:dd:
                    39:7d
                Exponent: 65537 (0x10001)
        X509v3 extensions:
            X509v3 Subject Key Identifier: 
                46:3E:D7:A5:8C:8E:F6:9D:DE:09:B0:A8:33:32:04:57:08:D2:57:13
            X509v3 Authority Key Identifier: 
                keyid:7C:A3:19:88:CE:02:DD:40:09:EC:6F:92:74:81:E0:72:E8:78:D4:88

            X509v3 Basic Constraints: critical
                CA:TRUE, pathlen:0
            X509v3 Key Usage: critical
                Digital Signature, Certificate Sign, CRL Sign
    Signature Algorithm: sha256WithRSAEncryption
         43:f0:2b:be:27:d7:31:35:28:4d:1f:da:b1:6d:6e:41:25:a4:
         b7:e1:60:47:35:f6:38:b1:12:1f:13:2d:ae:4c:91:21:77:5b:
         5b:1d:01:33:29:2e:f6:8c:cd:09:44:9f:3b:cf:4b:51:5f:d7:
         14:99:d4:b4:95:9c:75:fe:85:64:ff:64:8c:83:b3:5f:04:b1:
         2c:51:fe:ba:3d:9c:4d:57:a0:ce:3f:eb:04:2c:c4:af:ff:78:
         ff:65:ff:77:f7:fc:ce:4e:b1:b2:2e:32:92:81:c9:10:b8:81:
         12:b7:37:33:fe:25:d2:32:d2:ab:c2:bc:c2:d2:04:a9:48:b3:
         f3:8f:78:ca:a5:8e:72:5a:ff:1e:65:0e:6b:b8:de:ba:65:61:
         50:69:7c:0e:b4:d6:51:01:c8:66:1d:4e:30:38:7e:20:73:ef:
         39:df:0d:f5:22:22:a1:d1:0f:1c:44:d6:9d:c7:de:eb:9f:e9:
         ee:2d:98:f3:96:8e:a1:69:43:ac:da:3b:63:33:b7:e0:49:bf:
         7f:9e:db:18:3a:2c:64:28:99:88:aa:57:ed:7e:e7:46:b7:0f:
         f4:6d:81:e8:6c:4d:aa:a9:07:f8:f6:ab:e1:4b:08:e7:10:b1:
         25:1a:19:e1:28:7d:e8:6e:b7:ea:f7:c2:29:bc:5e:d7:b1:eb:
         3c:c3:96:70
-----BEGIN CERTIFICATE-----
MIIDYjCCAkqgAwIBAgIBBTANBgkqhkiG9w0BAQsFADAwMQswCQYDVQQGEwJERTEU
MBIGA1UECgwLaGF3LWhhbWJ1cmcxCzAJBgNVBAMMAkNBMB4XDTE2MTExMzE3MTAy
NloXDTE2MTIxMTE3MTAyNlowUTELMAkGA1UEBhMCREUxFDASBgNVBAoMC2hhdy1o
YW1idXJnMRMwEQYDVQQLDAppbmZvcm1hdGlrMRcwFQYDVQQDDA5DQS1kaWFuYS15
YXZ1ejCCASIwDQYJKoZIhvcNAQEBBQADggEPADCCAQoCggEBANQGmunsmq2qp1KX
jqK8bofHtPAFtsVJDQ0ucV7rQ37vaFEpiFMJww3gfXWYFJ85eDobBloMfA56JMcg
s7gatRhP1FLp6T8yvvkGHEeRmLnONZyix6RO35NMtPlVgB5qkUsl0WmKy/5Mjg/C
cNajz2RfZQ60psitUJCKEBDiqKXcv+hKldNMOhMwKFVixDti6LbVC290y1ovmUH9
6lJ+bs1Qe6vCuq2n9nvSL3canxDP7E7Upjqc0Ks/F3915uhM2TqKLQXbOwrml7p7
HLF6WfrfwpvOKPfeyhAn14QltRMUlRzRic15ucB1pahRfWnxo5ybuCwiM2DcVJ82
JyHdOX0CAwEAAaNmMGQwHQYDVR0OBBYEFEY+16WMjvad3gmwqDMyBFcI0lcTMB8G
A1UdIwQYMBaAFHyjGYjOAt1ACexvknSB4HLoeNSIMBIGA1UdEwEB/wQIMAYBAf8C
AQAwDgYDVR0PAQH/BAQDAgGGMA0GCSqGSIb3DQEBCwUAA4IBAQBD8Cu+J9cxNShN
H9qxbW5BJaS34WBHNfY4sRIfEy2uTJEhd1tbHQEzKS72jM0JRJ87z0tRX9cUmdS0
lZx1/oVk/2SMg7NfBLEsUf66PZxNV6DOP+sELMSv/3j/Zf939/zOTrGyLjKSgckQ
uIEStzcz/iXSMtKrwrzC0gSpSLPzj3jKpY5yWv8eZQ5ruN66ZWFQaXwOtNZRAchm
HU4wOH4gc+853w31IiKh0Q8cRNadx97rn+nuLZjzlo6haUOs2jtjM7fgSb9/ntsY
OixkKJmIqlftfudGtw/0bYHobE2qqQf49qvhSwjnELElGhnhKH3obrfq98IpvF7X
ses8w5Zw
-----END CERTIFICATE-----
