Certificate:
    Data:
        Version: 3 (0x2)
        Serial Number: 6 (0x6)
    Signature Algorithm: sha256WithRSAEncryption
        Issuer: C=DE, O=haw-hamburg, CN=CA
        Validity
            Not Before: Nov 13 17:13:20 2016 GMT
            Not After : Dec 11 17:13:20 2016 GMT
        Subject: C=DE, O=haw-hamburg, OU=informatik, CN=CA-diana-yavuz
        Subject Public Key Info:
            Public Key Algorithm: rsaEncryption
                Public-Key: (2048 bit)
                Modulus:
                    00:e4:18:1e:e8:22:c9:46:ac:c0:9f:b9:fa:fa:a3:
                    9d:b3:37:df:69:1c:1d:5f:2f:9b:3f:f8:5f:9a:c1:
                    3f:5d:fc:b8:a5:b7:bf:1e:09:e9:de:2f:ed:b9:9f:
                    cc:12:23:71:36:c2:6f:5b:e7:e2:14:fc:41:12:7b:
                    10:1c:4c:2f:51:a2:af:e0:dc:47:6b:cf:27:f8:08:
                    b9:2d:14:b6:3b:c4:18:4c:1b:ba:b0:c5:ff:e5:97:
                    98:4a:12:98:04:46:2f:b1:1a:da:41:a6:79:fc:b4:
                    a2:a7:b3:a0:02:73:e5:12:7e:c3:32:2d:22:fe:26:
                    c5:79:d1:5c:3f:a7:22:ee:f6:21:36:f7:15:da:07:
                    ee:d0:9a:7e:99:ee:1b:31:1b:ff:30:98:59:01:24:
                    69:54:01:76:68:9e:e0:47:7a:4d:e8:28:a0:54:86:
                    6b:13:56:7d:35:e9:c6:27:46:50:3a:7a:be:9e:c3:
                    ee:df:03:24:05:c5:bd:bf:67:e8:3a:ee:85:6c:21:
                    ed:a2:ed:77:05:66:94:16:ab:e4:1c:eb:99:ff:83:
                    2a:ef:00:5c:07:d7:7b:04:e6:a1:46:97:6f:1a:59:
                    49:21:03:6f:9f:67:4d:54:a3:3b:3e:39:f8:7e:e1:
                    37:2d:35:6f:70:67:11:fc:52:be:32:01:0e:4f:b5:
                    e5:45
                Exponent: 65537 (0x10001)
        X509v3 extensions:
            X509v3 Subject Key Identifier: 
                A4:B2:23:37:CF:98:FD:CC:11:DD:40:22:16:15:BA:E6:0D:00:F3:28
            X509v3 Authority Key Identifier: 
                keyid:EC:F3:89:E9:1E:83:B1:01:55:91:21:39:39:DA:3B:5F:0A:F2:BD:13

            X509v3 Basic Constraints: critical
                CA:TRUE, pathlen:0
            X509v3 Key Usage: critical
                Digital Signature, Certificate Sign, CRL Sign
    Signature Algorithm: sha256WithRSAEncryption
         83:d6:37:10:40:09:4a:ac:1c:11:31:2e:c3:39:a7:33:f8:30:
         8f:87:3f:83:1e:53:60:bc:88:90:20:4e:a7:3a:bc:27:f3:62:
         13:3d:ef:6b:fb:08:39:dc:96:e4:7a:df:a4:e3:d3:49:71:c7:
         01:d8:bf:de:c6:5f:3b:12:35:c9:d8:cb:ec:ca:34:cc:e4:3d:
         3c:e7:38:86:e5:f0:bd:fe:35:fc:71:1a:30:19:94:b4:94:91:
         06:53:85:09:73:8b:7f:28:bf:eb:88:0d:e3:7e:93:f6:80:2c:
         42:98:88:8b:9f:59:e0:15:af:54:fb:63:f0:b6:61:2d:f4:29:
         5e:17:ff:7b:3d:b2:0e:9c:8d:ec:03:e7:5c:84:f0:ab:5f:99:
         bd:7f:00:ef:dd:9f:c1:47:8a:b7:c1:80:1d:99:11:a6:db:ca:
         4c:83:96:f6:6c:7c:fd:23:9f:3f:39:09:97:d1:06:41:0a:52:
         a6:63:d7:53:bd:ed:40:f3:ca:8e:66:a2:09:73:e9:78:3a:1e:
         a0:18:70:de:5d:a9:46:98:1a:c7:a1:85:b5:43:9a:30:c3:fe:
         66:b3:39:08:ca:95:82:b9:d0:d9:2f:ef:13:bb:e8:16:1b:8e:
         28:7c:7f:35:e8:c0:0d:be:17:1e:14:00:6f:ce:d2:40:b9:0e:
         ae:4e:f2:c0
-----BEGIN CERTIFICATE-----
MIIDYjCCAkqgAwIBAgIBBjANBgkqhkiG9w0BAQsFADAwMQswCQYDVQQGEwJERTEU
MBIGA1UECgwLaGF3LWhhbWJ1cmcxCzAJBgNVBAMMAkNBMB4XDTE2MTExMzE3MTMy
MFoXDTE2MTIxMTE3MTMyMFowUTELMAkGA1UEBhMCREUxFDASBgNVBAoMC2hhdy1o
YW1idXJnMRMwEQYDVQQLDAppbmZvcm1hdGlrMRcwFQYDVQQDDA5DQS1kaWFuYS15
YXZ1ejCCASIwDQYJKoZIhvcNAQEBBQADggEPADCCAQoCggEBAOQYHugiyUaswJ+5
+vqjnbM332kcHV8vmz/4X5rBP138uKW3vx4J6d4v7bmfzBIjcTbCb1vn4hT8QRJ7
EBxML1Gir+DcR2vPJ/gIuS0UtjvEGEwburDF/+WXmEoSmARGL7Ea2kGmefy0oqez
oAJz5RJ+wzItIv4mxXnRXD+nIu72ITb3FdoH7tCafpnuGzEb/zCYWQEkaVQBdmie
4Ed6TegooFSGaxNWfTXpxidGUDp6vp7D7t8DJAXFvb9n6DruhWwh7aLtdwVmlBar
5Bzrmf+DKu8AXAfXewTmoUaXbxpZSSEDb59nTVSjOz45+H7hNy01b3BnEfxSvjIB
Dk+15UUCAwEAAaNmMGQwHQYDVR0OBBYEFKSyIzfPmP3MEd1AIhYVuuYNAPMoMB8G
A1UdIwQYMBaAFOzziekeg7EBVZEhOTnaO18K8r0TMBIGA1UdEwEB/wQIMAYBAf8C
AQAwDgYDVR0PAQH/BAQDAgGGMA0GCSqGSIb3DQEBCwUAA4IBAQCD1jcQQAlKrBwR
MS7DOacz+DCPhz+DHlNgvIiQIE6nOrwn82ITPe9r+wg53Jbket+k49NJcccB2L/e
xl87EjXJ2MvsyjTM5D085ziG5fC9/jX8cRowGZS0lJEGU4UJc4t/KL/riA3jfpP2
gCxCmIiLn1ngFa9U+2PwtmEt9CleF/97PbIOnI3sA+dchPCrX5m9fwDv3Z/BR4q3
wYAdmRGm28pMg5b2bHz9I58/OQmX0QZBClKmY9dTve1A88qOZqIJc+l4Oh6gGHDe
XalGmBrHoYW1Q5oww/5mszkIypWCudDZL+8Tu+gWG44ofH816MANvhceFABvztJA
uQ6uTvLA
-----END CERTIFICATE-----
