Certificate:
    Data:
        Version: 3 (0x2)
        Serial Number: 7 (0x7)
    Signature Algorithm: sha256WithRSAEncryption
        Issuer: C=DE, O=haw-hamburg, CN=CA
        Validity
            Not Before: Nov 13 17:14:21 2016 GMT
            Not After : Dec 11 17:14:21 2016 GMT
        Subject: C=DE, O=haw-hamburg, OU=informatik, CN=CA-diana-yavuz
        Subject Public Key Info:
            Public Key Algorithm: rsaEncryption
                Public-Key: (2048 bit)
                Modulus:
                    00:bf:ae:d7:cd:19:7a:be:77:31:b0:c9:c5:2d:9f:
                    11:61:1c:ab:81:98:2a:b3:89:cd:fa:46:28:f4:49:
                    47:75:e8:74:9e:e8:eb:cd:db:cc:f1:ef:20:b3:b8:
                    d1:e3:ac:38:9d:2a:d8:5d:23:c7:2e:e3:dd:c3:95:
                    a0:9b:14:11:2b:4d:35:c7:6c:17:c1:1b:f3:d2:74:
                    93:10:7b:24:4c:c4:6b:71:57:fc:28:e6:05:2a:70:
                    11:60:36:6d:d0:15:4f:98:db:83:f7:07:c4:39:8b:
                    08:18:7b:94:58:9a:d8:6c:3e:7a:f6:7e:0a:21:1d:
                    94:54:3f:1c:36:be:28:5f:b6:85:e3:aa:da:e9:9d:
                    fc:19:65:00:61:96:fa:98:86:16:63:72:e2:dc:9e:
                    9e:c3:e0:3b:14:0a:83:26:a3:4d:7e:b7:5c:38:5f:
                    8b:b3:6b:bb:ea:dc:77:34:45:18:13:0f:a5:7e:52:
                    9e:7c:72:0f:7a:ab:70:46:39:c2:04:a9:30:3c:80:
                    06:d6:aa:ba:40:70:30:51:ed:8a:b4:4a:cc:8f:5b:
                    00:b2:32:71:98:40:bf:c8:3b:06:87:99:18:d0:18:
                    6e:a5:98:c5:a8:2e:fd:e5:f8:af:e3:ad:ec:31:a1:
                    52:42:0c:9e:10:f9:3f:5e:09:4e:a0:6d:d1:cf:c5:
                    83:e7
                Exponent: 65537 (0x10001)
        X509v3 extensions:
            X509v3 Subject Key Identifier: 
                17:F9:D8:30:65:69:40:5D:A2:BD:7E:10:20:B7:5C:8C:93:CD:A5:BF
            X509v3 Authority Key Identifier: 
                keyid:A6:B7:57:37:2E:8B:16:ED:99:CA:82:F8:FB:69:8B:E7:72:4E:C1:9A

            X509v3 Basic Constraints: critical
                CA:TRUE, pathlen:0
            X509v3 Key Usage: critical
                Digital Signature, Certificate Sign, CRL Sign
    Signature Algorithm: sha256WithRSAEncryption
         36:a4:ef:a8:7a:26:9d:4c:aa:a2:e6:0a:a1:4e:3f:40:de:1a:
         f3:dd:52:71:c4:a6:7e:de:1a:67:92:dd:ec:c2:da:ac:b1:88:
         d5:bd:57:97:81:95:78:2d:94:a1:28:46:4a:79:b5:7a:44:53:
         76:f1:a3:09:64:bd:91:d8:c3:89:a5:3a:01:cb:89:29:31:15:
         c0:53:86:da:f0:0f:a4:79:d7:b7:77:bb:4b:6c:86:88:bf:af:
         0c:df:60:78:ab:65:1b:61:52:da:4f:45:89:6e:f9:86:2a:78:
         1e:16:86:fc:92:87:c0:08:49:cd:d9:b8:d2:0c:42:e2:9f:4b:
         2b:cf:88:90:0d:84:b4:0a:6d:af:2f:74:00:0b:53:1d:6d:65:
         7f:cf:c2:d4:37:9e:6b:e7:64:87:ba:7a:55:19:bf:b9:6a:26:
         3c:69:30:43:7c:c6:ba:26:13:30:cd:df:7e:48:9f:44:4b:38:
         3f:ee:5d:16:69:ca:f2:25:31:af:4d:0e:52:7e:c4:97:e5:97:
         4f:e0:55:3e:fd:0b:a7:8d:02:1b:b1:ec:dd:c7:63:0b:98:d7:
         d0:57:6b:b2:00:19:45:70:98:43:27:ef:ea:8f:0a:85:67:37:
         69:1f:17:d5:45:4d:2b:23:99:2f:50:60:24:1a:dd:f4:06:f6:
         82:7a:a7:91
-----BEGIN CERTIFICATE-----
MIIDYjCCAkqgAwIBAgIBBzANBgkqhkiG9w0BAQsFADAwMQswCQYDVQQGEwJERTEU
MBIGA1UECgwLaGF3LWhhbWJ1cmcxCzAJBgNVBAMMAkNBMB4XDTE2MTExMzE3MTQy
MVoXDTE2MTIxMTE3MTQyMVowUTELMAkGA1UEBhMCREUxFDASBgNVBAoMC2hhdy1o
YW1idXJnMRMwEQYDVQQLDAppbmZvcm1hdGlrMRcwFQYDVQQDDA5DQS1kaWFuYS15
YXZ1ejCCASIwDQYJKoZIhvcNAQEBBQADggEPADCCAQoCggEBAL+u180Zer53MbDJ
xS2fEWEcq4GYKrOJzfpGKPRJR3XodJ7o683bzPHvILO40eOsOJ0q2F0jxy7j3cOV
oJsUEStNNcdsF8Eb89J0kxB7JEzEa3FX/CjmBSpwEWA2bdAVT5jbg/cHxDmLCBh7
lFia2Gw+evZ+CiEdlFQ/HDa+KF+2heOq2umd/BllAGGW+piGFmNy4tyensPgOxQK
gyajTX63XDhfi7Nru+rcdzRFGBMPpX5SnnxyD3qrcEY5wgSpMDyABtaqukBwMFHt
irRKzI9bALIycZhAv8g7BoeZGNAYbqWYxagu/eX4r+Ot7DGhUkIMnhD5P14JTqBt
0c/Fg+cCAwEAAaNmMGQwHQYDVR0OBBYEFBf52DBlaUBdor1+ECC3XIyTzaW/MB8G
A1UdIwQYMBaAFKa3VzcuixbtmcqC+Ptpi+dyTsGaMBIGA1UdEwEB/wQIMAYBAf8C
AQAwDgYDVR0PAQH/BAQDAgGGMA0GCSqGSIb3DQEBCwUAA4IBAQA2pO+oeiadTKqi
5gqhTj9A3hrz3VJxxKZ+3hpnkt3swtqssYjVvVeXgZV4LZShKEZKebV6RFN28aMJ
ZL2R2MOJpToBy4kpMRXAU4ba8A+kede3d7tLbIaIv68M32B4q2UbYVLaT0WJbvmG
KngeFob8kofACEnN2bjSDELin0srz4iQDYS0Cm2vL3QAC1MdbWV/z8LUN55r52SH
unpVGb+5aiY8aTBDfMa6JhMwzd9+SJ9ESzg/7l0WacryJTGvTQ5SfsSX5ZdP4FU+
/QunjQIbsezdx2MLmNfQV2uyABlFcJhDJ+/qjwqFZzdpHxfVRU0rI5kvUGAkGt30
BvaCeqeR
-----END CERTIFICATE-----
