Certificate:
    Data:
        Version: 3 (0x2)
        Serial Number: 8 (0x8)
    Signature Algorithm: sha256WithRSAEncryption
        Issuer: C=DE, O=haw-hamburg, CN=CA
        Validity
            Not Before: Nov 13 17:15:05 2016 GMT
            Not After : Dec 11 17:15:05 2016 GMT
        Subject: C=DE, O=haw-hamburg, OU=informatik, CN=CA-diana-yavuz
        Subject Public Key Info:
            Public Key Algorithm: rsaEncryption
                Public-Key: (2048 bit)
                Modulus:
                    00:e3:55:d1:9c:35:71:8c:7b:e1:55:11:3c:56:a6:
                    d9:b6:34:62:c6:df:91:17:49:83:ee:fb:81:a2:ed:
                    08:d6:e0:c1:c4:bd:81:ae:8a:90:aa:09:d5:5a:9f:
                    9a:a5:5f:13:4b:94:bb:2b:95:6b:02:bb:28:1a:05:
                    67:26:f7:12:0f:98:b3:b6:37:13:42:62:70:54:50:
                    81:6b:25:6c:56:25:9f:26:8f:88:6c:98:50:e6:c9:
                    7e:73:d5:df:61:69:4c:7b:64:9e:d3:a9:4a:7b:66:
                    ee:b6:31:69:38:26:99:34:4e:5a:0a:c5:58:a7:e0:
                    26:6b:d2:e2:33:ca:35:3c:88:0d:7b:29:82:8e:4f:
                    61:bd:08:bd:9f:11:59:10:ff:4c:8d:80:aa:b3:a5:
                    84:dd:1e:17:1b:7c:18:fa:19:06:3b:e8:6a:9a:11:
                    ef:e6:e3:5f:20:bf:0a:95:da:4d:dd:21:0e:7b:29:
                    ca:e5:6b:77:47:c3:f4:81:bd:5a:dc:b9:4e:7b:ce:
                    6d:c7:bf:d0:38:b2:ed:b2:f9:b0:ef:7c:e9:21:a3:
                    4b:9b:f5:e3:1c:41:ac:bb:e3:70:73:f2:a6:6c:86:
                    24:e3:0a:67:53:5f:ef:8f:0b:18:e0:20:37:6f:42:
                    b4:81:5e:c4:d5:c5:62:96:9b:b0:c0:d9:7d:02:77:
                    c8:cb
                Exponent: 65537 (0x10001)
        X509v3 extensions:
            X509v3 Subject Key Identifier: 
                50:6E:47:20:0B:B3:3A:82:34:58:17:80:AC:20:58:BB:E3:A9:AF:DF
            X509v3 Authority Key Identifier: 
                keyid:01:03:39:8C:54:48:DC:7F:E2:68:DD:F4:EE:FD:30:11:8B:BB:08:23

            X509v3 Basic Constraints: critical
                CA:TRUE, pathlen:0
            X509v3 Key Usage: critical
                Digital Signature, Certificate Sign, CRL Sign
    Signature Algorithm: sha256WithRSAEncryption
         02:4d:8d:15:0a:1d:1f:8c:49:ad:f2:9b:0c:f2:5e:5f:0d:03:
         b4:22:9d:ff:a6:ec:41:88:e0:fe:16:58:f7:4d:49:f2:a2:44:
         9b:77:ea:fa:28:52:5c:60:c7:32:a1:bc:a8:9a:40:9b:d6:e9:
         2d:b0:32:27:87:7f:c8:02:4d:6c:d2:26:84:7a:e5:c2:58:68:
         32:e1:4d:7b:ab:82:9d:0d:04:98:43:2e:0f:f5:31:ee:ef:05:
         f3:87:b3:6c:5d:d2:7a:c6:c9:01:c8:f5:b9:8a:f3:f3:85:2f:
         ae:6f:e9:bb:d5:0d:cf:dd:af:19:ca:22:5e:ed:b6:47:f3:af:
         d9:3b:cb:8f:3f:8b:5b:85:36:7a:29:fa:a6:6a:9f:b8:e1:a9:
         5c:be:6b:4f:bb:a0:a5:16:9b:a2:dd:5e:d8:fe:7a:da:73:8c:
         47:bf:26:e0:ce:dc:20:2a:05:a3:da:db:3e:6f:ea:eb:f3:be:
         34:46:ff:23:6d:a3:fb:c3:df:e2:1b:3d:a6:8e:f9:44:23:0d:
         76:35:0c:33:be:b1:3d:d7:71:7c:ba:39:b2:af:17:47:e6:c4:
         0d:86:b9:34:4c:7a:d2:c3:58:bb:e5:5d:ad:76:13:bf:eb:9a:
         fb:cf:52:c7:11:e3:77:86:6a:94:41:bf:4c:86:c4:65:0b:73:
         0b:31:c0:13
-----BEGIN CERTIFICATE-----
MIIDYjCCAkqgAwIBAgIBCDANBgkqhkiG9w0BAQsFADAwMQswCQYDVQQGEwJERTEU
MBIGA1UECgwLaGF3LWhhbWJ1cmcxCzAJBgNVBAMMAkNBMB4XDTE2MTExMzE3MTUw
NVoXDTE2MTIxMTE3MTUwNVowUTELMAkGA1UEBhMCREUxFDASBgNVBAoMC2hhdy1o
YW1idXJnMRMwEQYDVQQLDAppbmZvcm1hdGlrMRcwFQYDVQQDDA5DQS1kaWFuYS15
YXZ1ejCCASIwDQYJKoZIhvcNAQEBBQADggEPADCCAQoCggEBAONV0Zw1cYx74VUR
PFam2bY0YsbfkRdJg+77gaLtCNbgwcS9ga6KkKoJ1VqfmqVfE0uUuyuVawK7KBoF
Zyb3Eg+Ys7Y3E0JicFRQgWslbFYlnyaPiGyYUObJfnPV32FpTHtkntOpSntm7rYx
aTgmmTROWgrFWKfgJmvS4jPKNTyIDXspgo5PYb0IvZ8RWRD/TI2AqrOlhN0eFxt8
GPoZBjvoapoR7+bjXyC/CpXaTd0hDnspyuVrd0fD9IG9Wty5TnvObce/0Diy7bL5
sO986SGjS5v14xxBrLvjcHPypmyGJOMKZ1Nf748LGOAgN29CtIFexNXFYpabsMDZ
fQJ3yMsCAwEAAaNmMGQwHQYDVR0OBBYEFFBuRyALszqCNFgXgKwgWLvjqa/fMB8G
A1UdIwQYMBaAFAEDOYxUSNx/4mjd9O79MBGLuwgjMBIGA1UdEwEB/wQIMAYBAf8C
AQAwDgYDVR0PAQH/BAQDAgGGMA0GCSqGSIb3DQEBCwUAA4IBAQACTY0VCh0fjEmt
8psM8l5fDQO0Ip3/puxBiOD+Flj3TUnyokSbd+r6KFJcYMcyobyomkCb1uktsDIn
h3/IAk1s0iaEeuXCWGgy4U17q4KdDQSYQy4P9THu7wXzh7NsXdJ6xskByPW5ivPz
hS+ub+m71Q3P3a8ZyiJe7bZH86/ZO8uPP4tbhTZ6Kfqmap+44alcvmtPu6ClFpui
3V7Y/nrac4xHvybgztwgKgWj2ts+b+rr8740Rv8jbaP7w9/iGz2mjvlEIw12NQwz
vrE913F8ujmyrxdH5sQNhrk0THrSw1i75V2tdhO/65r7z1LHEeN3hmqUQb9MhsRl
C3MLMcAT
-----END CERTIFICATE-----
