Certificate:
    Data:
        Version: 3 (0x2)
        Serial Number: 9 (0x9)
    Signature Algorithm: sha256WithRSAEncryption
        Issuer: C=DE, O=haw-hamburg, CN=CA
        Validity
            Not Before: Nov 13 17:19:49 2016 GMT
            Not After : Dec 11 17:19:49 2016 GMT
        Subject: C=DE, O=haw-hamburg, OU=informatik, CN=CA-diana-yavuz
        Subject Public Key Info:
            Public Key Algorithm: rsaEncryption
                Public-Key: (2048 bit)
                Modulus:
                    00:e0:f2:21:f0:60:48:5b:83:19:bd:7d:78:6b:b7:
                    7a:4b:6f:e9:a2:5a:f1:e7:c5:04:42:15:33:ad:02:
                    0b:d9:cd:97:19:2f:7f:59:a9:0d:f8:1b:61:d7:a3:
                    0a:58:11:a6:85:31:fb:79:2d:3a:8b:1e:73:af:e3:
                    3a:9e:da:1f:59:a9:95:a6:ed:b1:fe:de:f1:f1:5c:
                    9d:15:3b:5f:2b:88:ac:f5:b6:ab:6f:50:a7:20:5d:
                    5a:e2:03:dc:20:3b:1c:35:75:30:3b:62:39:43:3a:
                    df:ba:62:85:1e:da:54:ad:e8:cb:7c:0f:8e:d6:e0:
                    c9:5f:87:75:39:66:a3:c8:c5:27:ae:00:60:a1:ad:
                    94:cb:78:03:7f:48:c9:5a:b9:32:da:95:12:5f:e7:
                    7d:8c:11:e8:6b:2e:fb:dc:1f:cd:1e:8f:d3:22:fd:
                    14:b2:fd:50:f4:5a:55:1a:92:aa:81:ff:2d:82:fa:
                    40:61:d7:10:24:d1:3b:8e:d7:e4:5a:14:58:f8:39:
                    35:a1:c1:38:e4:98:88:0f:c0:0b:cf:d0:b2:6a:ef:
                    bd:bd:39:cd:07:2f:99:7b:c2:66:51:9f:8c:54:84:
                    00:f3:14:46:8a:3f:11:e8:15:5a:f1:62:79:31:1d:
                    90:7c:b4:65:8e:ee:d5:0c:72:54:5a:74:5f:1a:c5:
                    72:e5
                Exponent: 65537 (0x10001)
        X509v3 extensions:
            X509v3 Subject Key Identifier: 
                BD:D8:24:C7:FD:DE:53:0B:21:AD:32:FE:58:52:6F:BA:9F:95:27:C2
            X509v3 Authority Key Identifier: 
                keyid:83:CA:7C:2F:72:B4:4D:89:C1:F5:53:26:0B:4D:93:BB:35:20:8C:1F

            X509v3 Basic Constraints: critical
                CA:TRUE, pathlen:0
            X509v3 Key Usage: critical
                Digital Signature, Certificate Sign, CRL Sign
    Signature Algorithm: sha256WithRSAEncryption
         72:15:90:e8:04:4d:6f:75:95:78:b9:17:aa:fd:54:18:56:d4:
         7d:ea:4a:b9:0d:4f:33:ec:26:e5:14:bb:bd:dd:f1:e5:aa:1e:
         aa:6b:a6:82:f7:ff:26:45:93:ed:64:ae:0f:2d:f7:9e:24:63:
         44:1e:b3:17:36:85:7b:84:f2:e5:98:14:3c:f8:b7:46:f7:25:
         4d:b7:15:bb:4b:a6:82:f1:ed:94:27:54:06:f7:c6:1f:cd:eb:
         37:54:35:1e:d3:b2:03:4c:8b:d0:0a:03:06:cb:95:b5:77:e2:
         cb:7a:25:74:8a:a0:ad:a0:e3:ca:b0:b3:fe:80:fb:48:d2:f8:
         18:3a:a1:cf:3b:5e:4d:27:af:c5:fa:1d:7b:14:dc:a7:8d:73:
         06:50:20:33:8b:6f:9f:08:ba:03:e9:ed:4d:29:49:9c:a0:d3:
         64:7c:61:0a:68:84:36:bb:20:e0:9e:3b:b1:f2:63:c0:21:c8:
         76:7d:24:46:b6:d6:b8:4c:12:09:cf:b4:b9:15:63:1d:cc:09:
         78:a8:9b:f6:2d:60:07:5b:79:b6:53:46:c7:a9:cd:18:18:a1:
         da:b4:39:c0:ab:57:b3:09:49:9d:ab:b3:5d:11:4b:8f:53:46:
         0a:a1:31:06:ac:4c:67:92:cd:7f:10:3a:83:87:1a:98:4e:0a:
         3e:6c:b9:e2
-----BEGIN CERTIFICATE-----
MIIDYjCCAkqgAwIBAgIBCTANBgkqhkiG9w0BAQsFADAwMQswCQYDVQQGEwJERTEU
MBIGA1UECgwLaGF3LWhhbWJ1cmcxCzAJBgNVBAMMAkNBMB4XDTE2MTExMzE3MTk0
OVoXDTE2MTIxMTE3MTk0OVowUTELMAkGA1UEBhMCREUxFDASBgNVBAoMC2hhdy1o
YW1idXJnMRMwEQYDVQQLDAppbmZvcm1hdGlrMRcwFQYDVQQDDA5DQS1kaWFuYS15
YXZ1ejCCASIwDQYJKoZIhvcNAQEBBQADggEPADCCAQoCggEBAODyIfBgSFuDGb19
eGu3ektv6aJa8efFBEIVM60CC9nNlxkvf1mpDfgbYdejClgRpoUx+3ktOosec6/j
Op7aH1mplabtsf7e8fFcnRU7XyuIrPW2q29QpyBdWuID3CA7HDV1MDtiOUM637pi
hR7aVK3oy3wPjtbgyV+HdTlmo8jFJ64AYKGtlMt4A39IyVq5MtqVEl/nfYwR6Gsu
+9wfzR6P0yL9FLL9UPRaVRqSqoH/LYL6QGHXECTRO47X5FoUWPg5NaHBOOSYiA/A
C8/Qsmrvvb05zQcvmXvCZlGfjFSEAPMURoo/EegVWvFieTEdkHy0ZY7u1QxyVFp0
XxrFcuUCAwEAAaNmMGQwHQYDVR0OBBYEFL3YJMf93lMLIa0y/lhSb7qflSfCMB8G
A1UdIwQYMBaAFIPKfC9ytE2JwfVTJgtNk7s1IIwfMBIGA1UdEwEB/wQIMAYBAf8C
AQAwDgYDVR0PAQH/BAQDAgGGMA0GCSqGSIb3DQEBCwUAA4IBAQByFZDoBE1vdZV4
uReq/VQYVtR96kq5DU8z7CblFLu93fHlqh6qa6aC9/8mRZPtZK4PLfeeJGNEHrMX
NoV7hPLlmBQ8+LdG9yVNtxW7S6aC8e2UJ1QG98Yfzes3VDUe07IDTIvQCgMGy5W1
d+LLeiV0iqCtoOPKsLP+gPtI0vgYOqHPO15NJ6/F+h17FNynjXMGUCAzi2+fCLoD
6e1NKUmcoNNkfGEKaIQ2uyDgnjux8mPAIch2fSRGtta4TBIJz7S5FWMdzAl4qJv2
LWAHW3m2U0bHqc0YGKHatDnAq1ezCUmdq7NdEUuPU0YKoTEGrExnks1/EDqDhxqY
Tgo+bLni
-----END CERTIFICATE-----
