Certificate:
    Data:
        Version: 3 (0x2)
        Serial Number: 10 (0xa)
    Signature Algorithm: sha256WithRSAEncryption
        Issuer: C=DE, O=haw-hamburg, CN=CA
        Validity
            Not Before: Nov 13 17:44:26 2016 GMT
            Not After : Dec 11 17:44:26 2016 GMT
        Subject: C=DE, O=haw-hamburg, OU=informatik, CN=CA-diana-yavuz
        Subject Public Key Info:
            Public Key Algorithm: rsaEncryption
                Public-Key: (2048 bit)
                Modulus:
                    00:ad:a6:dd:98:1a:77:90:ec:b7:5c:c9:2e:19:9e:
                    90:27:ad:78:ca:fb:3b:e3:a9:d7:7c:39:6a:c8:2e:
                    fe:24:f8:1a:46:93:e9:89:b8:11:4d:0f:34:44:c6:
                    84:22:04:57:7d:59:fc:1d:02:fa:4c:b0:88:05:8b:
                    fe:18:bb:13:fc:ef:9f:84:72:12:ac:9c:8a:a6:6a:
                    d8:05:99:52:a4:9a:44:32:f9:2c:b1:f4:21:ba:10:
                    28:8f:d2:39:79:43:df:5e:02:59:e8:d9:51:fd:71:
                    de:3b:54:95:b5:61:8d:be:ec:2a:fb:c5:e7:3c:53:
                    e2:8f:bb:51:79:13:7e:17:6d:ac:12:8c:40:fc:af:
                    b4:62:a8:da:de:04:a9:c8:49:50:24:a6:9c:67:9a:
                    f4:2a:c7:7c:78:d0:51:5a:22:87:e1:6b:7b:af:fc:
                    cb:5b:ed:bb:39:37:20:4a:c4:54:66:f8:73:fc:19:
                    c2:53:4a:8c:6a:42:fc:66:07:df:ba:92:66:4a:62:
                    61:fc:22:26:37:cf:86:46:19:10:1b:63:4e:07:86:
                    c1:29:52:26:fc:24:93:03:68:e1:dc:57:9c:1c:d3:
                    c4:7d:01:6f:4c:24:32:0c:08:d8:6f:b7:70:ec:37:
                    80:de:12:52:ff:f4:2a:28:4c:c9:fa:ab:6f:fd:37:
                    af:21
                Exponent: 65537 (0x10001)
        X509v3 extensions:
            X509v3 Subject Key Identifier: 
                F0:60:A8:4A:14:B2:34:73:E1:B8:43:9A:B4:E0:BD:3B:B6:F5:12:30
            X509v3 Authority Key Identifier: 
                keyid:09:B0:14:B4:3F:26:C9:DA:40:37:C1:93:18:29:CC:B3:3A:75:82:FC

            X509v3 Basic Constraints: critical
                CA:TRUE, pathlen:0
            X509v3 Key Usage: critical
                Digital Signature, Certificate Sign, CRL Sign
    Signature Algorithm: sha256WithRSAEncryption
         81:8d:dc:dc:73:6f:9a:36:28:a2:3d:a0:98:c4:1f:51:ab:dc:
         24:52:09:f4:ab:8e:2a:f6:0d:77:d9:66:04:8a:85:fe:2e:b0:
         e8:f5:34:b2:63:df:f6:4d:07:50:d0:f4:a5:fb:00:03:a8:3b:
         51:88:39:35:c7:7c:8e:7c:ea:17:b6:bd:20:1b:c5:5a:c3:ea:
         de:20:f1:51:0b:e2:91:b4:42:3c:35:d4:2f:56:1b:6b:dd:12:
         f6:53:c8:1d:77:5a:2f:3b:20:a3:38:05:6a:cd:04:59:74:51:
         06:41:36:c0:ef:fe:35:3e:e5:b9:cb:b5:a0:88:d2:a9:83:2d:
         66:e8:89:b7:1c:ce:b0:a7:a2:e3:e7:4a:d9:b8:51:25:ab:82:
         81:b0:e0:af:45:da:70:41:d1:2e:24:fe:8c:36:3b:38:b6:2e:
         80:39:2e:1a:11:9a:fd:2c:41:72:57:5d:9b:b9:28:e2:d8:c8:
         0c:50:46:e9:8c:4c:05:34:19:93:c6:90:b1:2c:a9:f7:07:fd:
         0e:15:0b:e7:e3:f7:d4:4c:4c:ad:ee:46:47:ae:58:58:ae:bf:
         26:91:9a:cb:d5:89:bc:d7:b7:3c:95:88:1a:1d:d7:a3:06:1c:
         e8:e6:d7:b5:6b:c7:bf:3a:c6:4b:84:a7:8c:9b:a7:7b:72:6d:
         8b:82:86:f0
-----BEGIN CERTIFICATE-----
MIIDYjCCAkqgAwIBAgIBCjANBgkqhkiG9w0BAQsFADAwMQswCQYDVQQGEwJERTEU
MBIGA1UECgwLaGF3LWhhbWJ1cmcxCzAJBgNVBAMMAkNBMB4XDTE2MTExMzE3NDQy
NloXDTE2MTIxMTE3NDQyNlowUTELMAkGA1UEBhMCREUxFDASBgNVBAoMC2hhdy1o
YW1idXJnMRMwEQYDVQQLDAppbmZvcm1hdGlrMRcwFQYDVQQDDA5DQS1kaWFuYS15
YXZ1ejCCASIwDQYJKoZIhvcNAQEBBQADggEPADCCAQoCggEBAK2m3Zgad5Dst1zJ
LhmekCeteMr7O+Op13w5asgu/iT4GkaT6Ym4EU0PNETGhCIEV31Z/B0C+kywiAWL
/hi7E/zvn4RyEqyciqZq2AWZUqSaRDL5LLH0IboQKI/SOXlD314CWejZUf1x3jtU
lbVhjb7sKvvF5zxT4o+7UXkTfhdtrBKMQPyvtGKo2t4EqchJUCSmnGea9CrHfHjQ
UVoih+Fre6/8y1vtuzk3IErEVGb4c/wZwlNKjGpC/GYH37qSZkpiYfwiJjfPhkYZ
EBtjTgeGwSlSJvwkkwNo4dxXnBzTxH0Bb0wkMgwI2G+3cOw3gN4SUv/0KihMyfqr
b/03ryECAwEAAaNmMGQwHQYDVR0OBBYEFPBgqEoUsjRz4bhDmrTgvTu29RIwMB8G
A1UdIwQYMBaAFAmwFLQ/JsnaQDfBkxgpzLM6dYL8MBIGA1UdEwEB/wQIMAYBAf8C
AQAwDgYDVR0PAQH/BAQDAgGGMA0GCSqGSIb3DQEBCwUAA4IBAQCBjdzcc2+aNiii
PaCYxB9Rq9wkUgn0q44q9g132WYEioX+LrDo9TSyY9/2TQdQ0PSl+wADqDtRiDk1
x3yOfOoXtr0gG8Vaw+reIPFRC+KRtEI8NdQvVhtr3RL2U8gdd1ovOyCjOAVqzQRZ
dFEGQTbA7/41PuW5y7WgiNKpgy1m6Im3HM6wp6Lj50rZuFElq4KBsOCvRdpwQdEu
JP6MNjs4ti6AOS4aEZr9LEFyV12buSji2MgMUEbpjEwFNBmTxpCxLKn3B/0OFQvn
4/fUTEyt7kZHrlhYrr8mkZrL1Ym817c8lYgaHdejBhzo5te1a8e/OsZLhKeMm6d7
cm2Lgobw
-----END CERTIFICATE-----
