Certificate:
    Data:
        Version: 3 (0x2)
        Serial Number: 13457148109607911709 (0xbac164e81affc11d)
    Signature Algorithm: sha256WithRSAEncryption
        Issuer: C=DE, ST=Some-State, O=haw-hamburg, CN=CA
        Validity
            Not Before: Nov  7 20:35:47 2016 GMT
            Not After : Dec  5 20:35:47 2016 GMT
        Subject: C=DE, O=haw-hamburg, OU=informatik, CN=CA-diana-yavuz
        Subject Public Key Info:
            Public Key Algorithm: rsaEncryption
                Public-Key: (2048 bit)
                Modulus:
                    00:cd:5e:07:01:fb:ce:c7:23:d5:a0:a0:85:42:b9:
                    4b:0b:85:13:b4:b8:b1:33:c5:b2:fe:33:1a:0f:f2:
                    68:d1:63:3d:d1:e5:3a:91:7c:23:7a:f0:64:05:24:
                    9a:66:b7:11:00:cb:11:c9:c1:b1:26:b5:e2:7f:2d:
                    97:41:c9:75:6e:cb:27:aa:f4:c8:34:40:23:85:5a:
                    a8:ef:83:74:f8:6b:95:1d:79:00:2d:3b:e9:d1:f4:
                    81:25:ba:99:c7:10:4e:a1:70:00:3b:e5:4a:18:e5:
                    14:ac:2e:04:eb:c5:5b:19:92:b2:52:a1:f4:35:6a:
                    6d:b0:db:e8:e8:25:4e:d9:6e:34:73:7c:f5:dd:fb:
                    8e:84:78:23:32:e8:3e:26:58:58:95:cf:3c:bc:54:
                    7b:a8:93:35:57:af:98:87:eb:38:f5:55:c0:85:9e:
                    f2:0e:18:60:c4:37:fa:64:49:1c:84:74:80:79:55:
                    de:7f:f0:fe:97:2f:cb:a9:ad:02:72:dc:94:02:1d:
                    28:da:29:48:18:bf:95:8a:75:72:9e:70:d3:c1:66:
                    ad:a0:be:84:8e:2d:0a:ab:b1:b5:72:80:fc:72:f3:
                    a6:0a:b5:98:27:83:8d:15:5d:52:98:e0:ba:85:76:
                    20:81:a9:66:b3:db:81:e8:04:6f:16:aa:bd:bf:48:
                    1b:f1
                Exponent: 65537 (0x10001)
        X509v3 extensions:
            X509v3 Basic Constraints: 
                CA:TRUE
            X509v3 Subject Key Identifier: 
                AF:7B:57:F7:03:A8:C6:96:D6:04:2C:86:4F:2B:CD:B9:93:64:AD:3A
            X509v3 Authority Key Identifier: 
                keyid:00:27:4E:58:CF:38:03:2E:5C:86:95:FD:0B:E5:EB:21:56:A0:98:4B

    Signature Algorithm: sha256WithRSAEncryption
         86:b1:17:cd:f5:34:62:7c:95:dd:f6:17:80:95:64:68:1c:80:
         b2:3c:71:d4:88:d3:07:ef:24:9f:96:ad:98:9a:f3:0a:eb:80:
         60:3d:ce:12:8e:7c:13:db:13:7a:63:f2:dd:f4:cd:d3:83:73:
         36:9d:df:ce:97:2b:6b:c1:e8:68:62:e3:a5:ec:c9:61:6e:df:
         06:05:4b:65:42:6b:22:f5:2b:1d:20:09:6a:d8:d7:13:0d:0a:
         5b:12:0a:41:5c:00:78:53:7b:61:80:9b:21:e5:83:76:0f:2d:
         c7:3d:26:6c:3c:34:b4:b3:37:cf:3a:82:d5:f8:dc:ee:a9:e2:
         2e:45:28:d6:07:ab:21:52:61:c4:08:d2:22:b2:f6:59:34:bc:
         35:e1:6a:6a:d9:88:93:41:73:3c:77:f0:13:bc:84:02:a0:44:
         21:24:26:e3:99:a0:bf:a6:ee:63:68:fd:0f:fb:23:ec:52:01:
         5a:58:0c:37:8f:4f:3b:e6:f0:9a:33:06:15:dd:29:c4:fd:1c:
         d1:13:98:cc:5a:c0:5f:c2:dc:03:e2:24:ad:43:21:71:4b:b5:
         5c:da:4d:cd:cc:14:3f:ab:af:3a:2a:7a:b8:b0:2f:55:5f:4d:
         d0:92:2e:12:31:3c:95:74:0b:21:08:08:bf:83:1e:b7:81:18:
         1c:2e:f6:07
-----BEGIN CERTIFICATE-----
MIIDaTCCAlGgAwIBAgIJALrBZOga/8EdMA0GCSqGSIb3DQEBCwUAMEUxCzAJBgNV
BAYTAkRFMRMwEQYDVQQIDApTb21lLVN0YXRlMRQwEgYDVQQKDAtoYXctaGFtYnVy
ZzELMAkGA1UEAwwCQ0EwHhcNMTYxMTA3MjAzNTQ3WhcNMTYxMjA1MjAzNTQ3WjBR
MQswCQYDVQQGEwJERTEUMBIGA1UECgwLaGF3LWhhbWJ1cmcxEzARBgNVBAsMCmlu
Zm9ybWF0aWsxFzAVBgNVBAMMDkNBLWRpYW5hLXlhdnV6MIIBIjANBgkqhkiG9w0B
AQEFAAOCAQ8AMIIBCgKCAQEAzV4HAfvOxyPVoKCFQrlLC4UTtLixM8Wy/jMaD/Jo
0WM90eU6kXwjevBkBSSaZrcRAMsRycGxJrXify2XQcl1bssnqvTINEAjhVqo74N0
+GuVHXkALTvp0fSBJbqZxxBOoXAAO+VKGOUUrC4E68VbGZKyUqH0NWptsNvo6CVO
2W40c3z13fuOhHgjMug+JlhYlc88vFR7qJM1V6+Yh+s49VXAhZ7yDhhgxDf6ZEkc
hHSAeVXef/D+ly/Lqa0CctyUAh0o2ilIGL+VinVynnDTwWatoL6Eji0Kq7G1coD8
cvOmCrWYJ4ONFV1SmOC6hXYggalms9uB6ARvFqq9v0gb8QIDAQABo1AwTjAMBgNV
HRMEBTADAQH/MB0GA1UdDgQWBBSve1f3A6jGltYELIZPK825k2StOjAfBgNVHSME
GDAWgBQAJ05YzzgDLlyGlf0L5eshVqCYSzANBgkqhkiG9w0BAQsFAAOCAQEAhrEX
zfU0YnyV3fYXgJVkaByAsjxx1IjTB+8kn5atmJrzCuuAYD3OEo58E9sTemPy3fTN
04NzNp3fzpcra8HoaGLjpezJYW7fBgVLZUJrIvUrHSAJatjXEw0KWxIKQVwAeFN7
YYCbIeWDdg8txz0mbDw0tLM3zzqC1fjc7qniLkUo1gerIVJhxAjSIrL2WTS8NeFq
atmIk0FzPHfwE7yEAqBEISQm45mgv6buY2j9D/sj7FIBWlgMN49PO+bwmjMGFd0p
xP0c0ROYzFrAX8LcA+IkrUMhcUu1XNpNzcwUP6uvOip6uLAvVV9N0JIuEjE8lXQL
IQgIv4Met4EYHC72Bw==
-----END CERTIFICATE-----
