Certificate:
    Data:
        Version: 3 (0x2)
        Serial Number: 13457148109607911711 (0xbac164e81affc11f)
    Signature Algorithm: sha256WithRSAEncryption
        Issuer: C=DE, O=haw-hamburg, CN=CA
        Validity
            Not Before: Nov  8 13:53:44 2016 GMT
            Not After : Dec  6 13:53:44 2016 GMT
        Subject: C=DE, O=haw-hamburg, OU=informatik, CN=CA-diana-yavuz
        Subject Public Key Info:
            Public Key Algorithm: rsaEncryption
                Public-Key: (2048 bit)
                Modulus:
                    00:c8:bf:94:e7:da:1f:6c:41:f7:a4:32:90:d6:30:
                    c2:94:d3:5a:12:3f:3a:92:4e:0e:ea:8f:85:c0:84:
                    8d:5d:7b:42:d3:5b:43:32:a1:1b:7d:ec:09:af:bd:
                    f4:c5:27:22:e1:1d:78:19:78:8a:e9:4b:19:ad:60:
                    34:2e:1e:a1:39:96:3c:e9:71:22:81:de:6e:00:25:
                    dd:de:92:2d:87:3a:32:64:fa:85:74:03:38:43:08:
                    b0:dd:0f:66:5a:0d:c6:d7:f9:d0:2f:4e:ca:93:ab:
                    e1:88:06:35:72:bf:5d:60:96:67:ee:32:71:ab:b9:
                    ba:d7:da:02:6a:28:58:90:a3:50:3d:40:d6:01:26:
                    15:58:57:44:f6:f9:aa:d9:37:8e:c2:dc:9e:a0:08:
                    3b:f0:46:5e:dc:78:ea:cd:b8:fe:38:d6:31:2a:7a:
                    78:8b:8e:af:91:a6:c8:5a:69:37:52:c5:72:6b:9e:
                    97:12:f3:d8:1c:55:f3:30:07:3f:d8:72:5f:70:2b:
                    2f:50:1b:13:ae:e8:50:c5:8d:eb:2b:19:c0:4d:00:
                    60:dd:11:89:6d:d7:b6:9f:5d:f4:80:5e:8e:7e:a4:
                    b0:e6:6e:48:62:5a:1b:14:a6:80:c6:2e:6b:ea:67:
                    ec:41:80:07:e2:02:4f:70:94:72:72:c0:6d:4c:e6:
                    17:79
                Exponent: 65537 (0x10001)
        X509v3 extensions:
            X509v3 Basic Constraints: 
                CA:TRUE
            X509v3 Subject Key Identifier: 
                6A:FA:69:45:4A:C7:F7:41:96:FE:CD:82:21:40:6A:76:4F:A6:46:48
            X509v3 Authority Key Identifier: 
                keyid:00:27:4E:58:CF:38:03:2E:5C:86:95:FD:0B:E5:EB:21:56:A0:98:4B

    Signature Algorithm: sha256WithRSAEncryption
         42:74:fd:a3:f6:81:93:a9:52:32:61:16:63:21:53:e4:70:f3:
         ea:33:8e:0e:de:39:89:da:e6:93:84:94:3b:b6:1d:be:ad:1d:
         05:13:7a:47:64:20:d4:5e:36:02:cc:69:65:b9:4d:0b:b1:80:
         5d:90:6a:fb:9d:15:87:4d:57:33:10:dc:a9:7c:78:2e:9b:2a:
         93:a2:83:60:09:e2:39:6e:f8:b9:6a:5e:91:7c:be:57:1e:d0:
         b9:4d:8d:c9:fa:7e:c1:d6:84:f3:a5:5c:28:d4:71:4f:cd:92:
         e7:c4:89:ba:ef:1d:11:ec:58:b9:5a:61:90:bc:89:9b:cb:60:
         fe:20:eb:14:b5:ad:a2:3e:ee:88:bb:bf:e3:e7:e0:2b:c5:73:
         5b:7e:ab:00:8b:d7:27:1b:9c:bb:38:50:bf:a7:8e:5c:b7:b0:
         97:27:12:6c:3a:90:da:78:4b:a6:10:6d:f1:39:a2:35:17:83:
         b3:1a:9d:43:96:30:49:8f:02:6c:28:61:9e:75:fd:8b:bd:37:
         7e:7b:82:84:23:05:aa:4b:d6:dc:53:1c:d3:6d:7d:9e:ca:33:
         f8:98:b2:8f:36:c9:ef:9b:4f:b0:a1:4d:dd:22:c2:ba:84:a2:
         c5:80:5f:fc:79:1e:8b:32:8c:9b:e3:14:d6:79:f6:a3:28:14:
         62:ec:ab:a2
-----BEGIN CERTIFICATE-----
MIIDVDCCAjygAwIBAgIJALrBZOga/8EfMA0GCSqGSIb3DQEBCwUAMDAxCzAJBgNV
BAYTAkRFMRQwEgYDVQQKDAtoYXctaGFtYnVyZzELMAkGA1UEAwwCQ0EwHhcNMTYx
MTA4MTM1MzQ0WhcNMTYxMjA2MTM1MzQ0WjBRMQswCQYDVQQGEwJERTEUMBIGA1UE
CgwLaGF3LWhhbWJ1cmcxEzARBgNVBAsMCmluZm9ybWF0aWsxFzAVBgNVBAMMDkNB
LWRpYW5hLXlhdnV6MIIBIjANBgkqhkiG9w0BAQEFAAOCAQ8AMIIBCgKCAQEAyL+U
59ofbEH3pDKQ1jDClNNaEj86kk4O6o+FwISNXXtC01tDMqEbfewJr730xSci4R14
GXiK6UsZrWA0Lh6hOZY86XEigd5uACXd3pIthzoyZPqFdAM4Qwiw3Q9mWg3G1/nQ
L07Kk6vhiAY1cr9dYJZn7jJxq7m619oCaihYkKNQPUDWASYVWFdE9vmq2TeOwtye
oAg78EZe3Hjqzbj+ONYxKnp4i46vkabIWmk3UsVya56XEvPYHFXzMAc/2HJfcCsv
UBsTruhQxY3rKxnATQBg3RGJbde2n130gF6OfqSw5m5IYlobFKaAxi5r6mfsQYAH
4gJPcJRycsBtTOYXeQIDAQABo1AwTjAMBgNVHRMEBTADAQH/MB0GA1UdDgQWBBRq
+mlFSsf3QZb+zYIhQGp2T6ZGSDAfBgNVHSMEGDAWgBQAJ05YzzgDLlyGlf0L5esh
VqCYSzANBgkqhkiG9w0BAQsFAAOCAQEAQnT9o/aBk6lSMmEWYyFT5HDz6jOODt45
idrmk4SUO7Ydvq0dBRN6R2Qg1F42AsxpZblNC7GAXZBq+50Vh01XMxDcqXx4Lpsq
k6KDYAniOW74uWpekXy+Vx7QuU2Nyfp+wdaE86VcKNRxT82S58SJuu8dEexYuVph
kLyJm8tg/iDrFLWtoj7uiLu/4+fgK8VzW36rAIvXJxucuzhQv6eOXLewlycSbDqQ
2nhLphBt8TmiNReDsxqdQ5YwSY8CbChhnnX9i703fnuChCMFqkvW3FMc0219nsoz
+JiyjzbJ75tPsKFN3SLCuoSixYBf/HkeizKMm+MU1nn2oygUYuyrog==
-----END CERTIFICATE-----
